                              1 ;--------------------------------------------------------
                              2 ; File Created by SDCC : free open source ANSI-C Compiler
                              3 ; Version 3.3.0 #8604 (Dec 30 2013) (Linux)
                              4 ; This file was generated Mon Dec 14 23:38:57 2015
                              5 ;--------------------------------------------------------
                              6 	.module rsa_exponent
                              7 	.optsdcc -mmcs51 --model-small
                              8 	
                              9 ;--------------------------------------------------------
                             10 ; Public variables in this module
                             11 ;--------------------------------------------------------
                             12 	.globl _main
                             13 	.globl _CY
                             14 	.globl _AC
                             15 	.globl _F0
                             16 	.globl _RS1
                             17 	.globl _RS0
                             18 	.globl _OV
                             19 	.globl _F1
                             20 	.globl _P
                             21 	.globl _PS
                             22 	.globl _PT1
                             23 	.globl _PX1
                             24 	.globl _PT0
                             25 	.globl _PX0
                             26 	.globl _RD
                             27 	.globl _WR
                             28 	.globl _T1
                             29 	.globl _T0
                             30 	.globl _INT1
                             31 	.globl _INT0
                             32 	.globl _TXD
                             33 	.globl _RXD
                             34 	.globl _P3_7
                             35 	.globl _P3_6
                             36 	.globl _P3_5
                             37 	.globl _P3_4
                             38 	.globl _P3_3
                             39 	.globl _P3_2
                             40 	.globl _P3_1
                             41 	.globl _P3_0
                             42 	.globl _EA
                             43 	.globl _ES
                             44 	.globl _ET1
                             45 	.globl _EX1
                             46 	.globl _ET0
                             47 	.globl _EX0
                             48 	.globl _P2_7
                             49 	.globl _P2_6
                             50 	.globl _P2_5
                             51 	.globl _P2_4
                             52 	.globl _P2_3
                             53 	.globl _P2_2
                             54 	.globl _P2_1
                             55 	.globl _P2_0
                             56 	.globl _SM0
                             57 	.globl _SM1
                             58 	.globl _SM2
                             59 	.globl _REN
                             60 	.globl _TB8
                             61 	.globl _RB8
                             62 	.globl _TI
                             63 	.globl _RI
                             64 	.globl _P1_7
                             65 	.globl _P1_6
                             66 	.globl _P1_5
                             67 	.globl _P1_4
                             68 	.globl _P1_3
                             69 	.globl _P1_2
                             70 	.globl _P1_1
                             71 	.globl _P1_0
                             72 	.globl _TF1
                             73 	.globl _TR1
                             74 	.globl _TF0
                             75 	.globl _TR0
                             76 	.globl _IE1
                             77 	.globl _IT1
                             78 	.globl _IE0
                             79 	.globl _IT0
                             80 	.globl _P0_7
                             81 	.globl _P0_6
                             82 	.globl _P0_5
                             83 	.globl _P0_4
                             84 	.globl _P0_3
                             85 	.globl _P0_2
                             86 	.globl _P0_1
                             87 	.globl _P0_0
                             88 	.globl _B
                             89 	.globl _ACC
                             90 	.globl _PSW
                             91 	.globl _IP
                             92 	.globl _P3
                             93 	.globl _IE
                             94 	.globl _P2
                             95 	.globl _SBUF
                             96 	.globl _SCON
                             97 	.globl _P1
                             98 	.globl _TH1
                             99 	.globl _TH0
                            100 	.globl _TL1
                            101 	.globl _TL0
                            102 	.globl _TMOD
                            103 	.globl _TCON
                            104 	.globl _PCON
                            105 	.globl _DPH
                            106 	.globl _DPL
                            107 	.globl _SP
                            108 	.globl _P0
                            109 	.globl _d
                            110 	.globl _e
                            111 	.globl _a
                            112 	.globl _rmodm
                            113 	.globl _x
                            114 	.globl _r2modm
                            115 	.globl _m
                            116 ;--------------------------------------------------------
                            117 ; special function registers
                            118 ;--------------------------------------------------------
                            119 	.area RSEG    (ABS,DATA)
   0000                     120 	.org 0x0000
                     0080   121 _P0	=	0x0080
                     0081   122 _SP	=	0x0081
                     0082   123 _DPL	=	0x0082
                     0083   124 _DPH	=	0x0083
                     0087   125 _PCON	=	0x0087
                     0088   126 _TCON	=	0x0088
                     0089   127 _TMOD	=	0x0089
                     008A   128 _TL0	=	0x008a
                     008B   129 _TL1	=	0x008b
                     008C   130 _TH0	=	0x008c
                     008D   131 _TH1	=	0x008d
                     0090   132 _P1	=	0x0090
                     0098   133 _SCON	=	0x0098
                     0099   134 _SBUF	=	0x0099
                     00A0   135 _P2	=	0x00a0
                     00A8   136 _IE	=	0x00a8
                     00B0   137 _P3	=	0x00b0
                     00B8   138 _IP	=	0x00b8
                     00D0   139 _PSW	=	0x00d0
                     00E0   140 _ACC	=	0x00e0
                     00F0   141 _B	=	0x00f0
                            142 ;--------------------------------------------------------
                            143 ; special function bits
                            144 ;--------------------------------------------------------
                            145 	.area RSEG    (ABS,DATA)
   0000                     146 	.org 0x0000
                     0080   147 _P0_0	=	0x0080
                     0081   148 _P0_1	=	0x0081
                     0082   149 _P0_2	=	0x0082
                     0083   150 _P0_3	=	0x0083
                     0084   151 _P0_4	=	0x0084
                     0085   152 _P0_5	=	0x0085
                     0086   153 _P0_6	=	0x0086
                     0087   154 _P0_7	=	0x0087
                     0088   155 _IT0	=	0x0088
                     0089   156 _IE0	=	0x0089
                     008A   157 _IT1	=	0x008a
                     008B   158 _IE1	=	0x008b
                     008C   159 _TR0	=	0x008c
                     008D   160 _TF0	=	0x008d
                     008E   161 _TR1	=	0x008e
                     008F   162 _TF1	=	0x008f
                     0090   163 _P1_0	=	0x0090
                     0091   164 _P1_1	=	0x0091
                     0092   165 _P1_2	=	0x0092
                     0093   166 _P1_3	=	0x0093
                     0094   167 _P1_4	=	0x0094
                     0095   168 _P1_5	=	0x0095
                     0096   169 _P1_6	=	0x0096
                     0097   170 _P1_7	=	0x0097
                     0098   171 _RI	=	0x0098
                     0099   172 _TI	=	0x0099
                     009A   173 _RB8	=	0x009a
                     009B   174 _TB8	=	0x009b
                     009C   175 _REN	=	0x009c
                     009D   176 _SM2	=	0x009d
                     009E   177 _SM1	=	0x009e
                     009F   178 _SM0	=	0x009f
                     00A0   179 _P2_0	=	0x00a0
                     00A1   180 _P2_1	=	0x00a1
                     00A2   181 _P2_2	=	0x00a2
                     00A3   182 _P2_3	=	0x00a3
                     00A4   183 _P2_4	=	0x00a4
                     00A5   184 _P2_5	=	0x00a5
                     00A6   185 _P2_6	=	0x00a6
                     00A7   186 _P2_7	=	0x00a7
                     00A8   187 _EX0	=	0x00a8
                     00A9   188 _ET0	=	0x00a9
                     00AA   189 _EX1	=	0x00aa
                     00AB   190 _ET1	=	0x00ab
                     00AC   191 _ES	=	0x00ac
                     00AF   192 _EA	=	0x00af
                     00B0   193 _P3_0	=	0x00b0
                     00B1   194 _P3_1	=	0x00b1
                     00B2   195 _P3_2	=	0x00b2
                     00B3   196 _P3_3	=	0x00b3
                     00B4   197 _P3_4	=	0x00b4
                     00B5   198 _P3_5	=	0x00b5
                     00B6   199 _P3_6	=	0x00b6
                     00B7   200 _P3_7	=	0x00b7
                     00B0   201 _RXD	=	0x00b0
                     00B1   202 _TXD	=	0x00b1
                     00B2   203 _INT0	=	0x00b2
                     00B3   204 _INT1	=	0x00b3
                     00B4   205 _T0	=	0x00b4
                     00B5   206 _T1	=	0x00b5
                     00B6   207 _WR	=	0x00b6
                     00B7   208 _RD	=	0x00b7
                     00B8   209 _PX0	=	0x00b8
                     00B9   210 _PT0	=	0x00b9
                     00BA   211 _PX1	=	0x00ba
                     00BB   212 _PT1	=	0x00bb
                     00BC   213 _PS	=	0x00bc
                     00D0   214 _P	=	0x00d0
                     00D1   215 _F1	=	0x00d1
                     00D2   216 _OV	=	0x00d2
                     00D3   217 _RS0	=	0x00d3
                     00D4   218 _RS1	=	0x00d4
                     00D5   219 _F0	=	0x00d5
                     00D6   220 _AC	=	0x00d6
                     00D7   221 _CY	=	0x00d7
                            222 ;--------------------------------------------------------
                            223 ; overlayable register banks
                            224 ;--------------------------------------------------------
                            225 	.area REG_BANK_0	(REL,OVR,DATA)
   0000                     226 	.ds 8
                            227 ;--------------------------------------------------------
                            228 ; internal ram data
                            229 ;--------------------------------------------------------
                            230 	.area DSEG    (DATA)
                            231 ;--------------------------------------------------------
                            232 ; overlayable items in internal ram 
                            233 ;--------------------------------------------------------
                            234 ;--------------------------------------------------------
                            235 ; Stack segment in internal ram 
                            236 ;--------------------------------------------------------
                            237 	.area	SSEG	(DATA)
   000A                     238 __start__stack:
   000A                     239 	.ds	1
                            240 
                            241 ;--------------------------------------------------------
                            242 ; indirectly addressable internal ram data
                            243 ;--------------------------------------------------------
                            244 	.area ISEG    (DATA)
                            245 ;--------------------------------------------------------
                            246 ; absolute internal ram data
                            247 ;--------------------------------------------------------
                            248 	.area IABS    (ABS,DATA)
                            249 	.area IABS    (ABS,DATA)
                            250 ;--------------------------------------------------------
                            251 ; bit data
                            252 ;--------------------------------------------------------
                            253 	.area BSEG    (BIT)
                            254 ;--------------------------------------------------------
                            255 ; paged external ram data
                            256 ;--------------------------------------------------------
                            257 	.area PSEG    (PAG,XDATA)
                            258 ;--------------------------------------------------------
                            259 ; external ram data
                            260 ;--------------------------------------------------------
                            261 	.area XSEG    (XDATA)
                            262 ;--------------------------------------------------------
                            263 ; absolute external ram data
                            264 ;--------------------------------------------------------
                            265 	.area XABS    (ABS,XDATA)
   1000                     266 	.org 0x1000
   1000                     267 _m::
   1000                     268 	.ds 256
   1100                     269 	.org 0x1100
   1100                     270 _r2modm::
   1100                     271 	.ds 256
   1200                     272 	.org 0x1200
   1200                     273 _x::
   1200                     274 	.ds 256
   1300                     275 	.org 0x1300
   1300                     276 _rmodm::
   1300                     277 	.ds 256
   1400                     278 	.org 0x1400
   1400                     279 _a::
   1400                     280 	.ds 256
   0100                     281 	.org 0x0100
   0100                     282 _e::
   0100                     283 	.ds 256
   0200                     284 	.org 0x0200
   0200                     285 _d::
   0200                     286 	.ds 128
                            287 ;--------------------------------------------------------
                            288 ; external initialized ram data
                            289 ;--------------------------------------------------------
                            290 	.area XISEG   (XDATA)
                            291 	.area HOME    (CODE)
                            292 	.area GSINIT0 (CODE)
                            293 	.area GSINIT1 (CODE)
                            294 	.area GSINIT2 (CODE)
                            295 	.area GSINIT3 (CODE)
                            296 	.area GSINIT4 (CODE)
                            297 	.area GSINIT5 (CODE)
                            298 	.area GSINIT  (CODE)
                            299 	.area GSFINAL (CODE)
                            300 	.area CSEG    (CODE)
                            301 ;--------------------------------------------------------
                            302 ; interrupt vector 
                            303 ;--------------------------------------------------------
                            304 	.area HOME    (CODE)
   0000                     305 __interrupt_vect:
   0000 02 00 06      [24]  306 	ljmp	__sdcc_gsinit_startup
                            307 ;--------------------------------------------------------
                            308 ; global & static initialisations
                            309 ;--------------------------------------------------------
                            310 	.area HOME    (CODE)
                            311 	.area GSINIT  (CODE)
                            312 	.area GSFINAL (CODE)
                            313 	.area GSINIT  (CODE)
                            314 	.globl __sdcc_gsinit_startup
                            315 	.globl __sdcc_program_startup
                            316 	.globl __start__stack
                            317 	.globl __mcs51_genXINIT
                            318 	.globl __mcs51_genXRAMCLEAR
                            319 	.globl __mcs51_genRAMCLEAR
                            320 ;	rsa_exponent.c:20: volatile __xdata __at (0x1000) unsigned char m[] ={ 0x31, 0x6F, 0x7A, 0xE6, 0xE5, 0xBC, 0x77, 0xA6, 0xF8, 0x66, 0x9E, 0x3B, 0x02, 0xF4, 0xDF, 0x32, 0xC8, 0xA7, 0xB9, 0x2A, 0x1E, 0xBC, 0x08, 0xBE, 0x86, 0x11, 0xDE, 0x2A, 0xCF, 0xE8, 0x88, 0x8E, 0x3B, 0x5C, 0x6A, 0x71, 0x47, 0x3C, 0x45, 0x05, 0x46, 0xE4, 0xAD, 0x93, 0x42, 0x1F, 0x77, 0xDC, 0x25, 0x97, 0x70, 0xE1, 0xB5, 0xEB, 0x89, 0x7F, 0xA9, 0x1E, 0x50, 0x1D, 0x33, 0x99, 0x3C, 0x09, 0x68, 0xE4, 0x1A, 0xCF, 0xB0, 0x1E, 0xBA, 0x56, 0x24, 0x7C, 0x8E, 0x35, 0x84, 0xE0, 0xAA, 0x2D, 0xEC, 0x58, 0xA0, 0x4D, 0x89, 0x8A, 0x02, 0x27, 0x38, 0x54, 0x2E, 0x4F, 0xB2, 0x96, 0xAB, 0x29, 0x01, 0x21, 0x07, 0xF9, 0x85, 0x01, 0x99, 0xE7, 0xFE, 0xF8, 0x9A, 0x19, 0x6D, 0x92, 0x87, 0x68, 0x0E, 0x45, 0xB0, 0xCF, 0xD9, 0x3D, 0xA5, 0x36, 0x2C, 0x98, 0xD3, 0x0E, 0xD6, 0xB4, 0xD3, 0xD1, 0x00, 0x00, 0x00, 0x00, 0x00, 0x00, 0x00, 0x00, 0x00, 0x00, 0x00, 0x00, 0x00, 0x00, 0x00, 0x00, 0x00, 0x00, 0x00, 0x00, 0x00, 0x00, 0x00, 0x00, 0x00, 0x00, 0x00, 0x00, 0x00, 0x00, 0x00, 0x00, 0x00, 0x00, 0x00, 0x00, 0x00, 0x00, 0x00, 0x00, 0x00, 0x00, 0x00, 0x00, 0x00, 0x00, 0x00, 0x00, 0x00, 0x00, 0x00, 0x00, 0x00, 0x00, 0x00, 0x00, 0x00, 0x00, 0x00, 0x00, 0x00, 0x00, 0x00, 0x00, 0x00, 0x00, 0x00, 0x00, 0x00, 0x00, 0x00, 0x00, 0x00, 0x00, 0x00, 0x00, 0x00, 0x00, 0x00, 0x00, 0x00, 0x00, 0x00, 0x00, 0x00, 0x00, 0x00, 0x00, 0x00, 0x00, 0x00, 0x00, 0x00, 0x00, 0x00, 0x00, 0x00, 0x00, 0x00, 0x00, 0x00, 0x00, 0x00, 0x00, 0x00, 0x00, 0x00, 0x00, 0x00, 0x00, 0x00, 0x00, 0x00, 0x00, 0x00, 0x00, 0x00, 0x00, 0x00, 0x00, 0x00, 0x00, 0x00, 0x00, 0x00, 0x00, 0x00, 0x00   };
   005F 90 10 00      [24]  321 	mov	dptr,#_m
   0062 74 31         [12]  322 	mov	a,#0x31
   0064 F0            [24]  323 	movx	@dptr,a
   0065 90 10 01      [24]  324 	mov	dptr,#(_m + 0x0001)
   0068 74 6F         [12]  325 	mov	a,#0x6F
   006A F0            [24]  326 	movx	@dptr,a
   006B 90 10 02      [24]  327 	mov	dptr,#(_m + 0x0002)
   006E 74 7A         [12]  328 	mov	a,#0x7A
   0070 F0            [24]  329 	movx	@dptr,a
   0071 90 10 03      [24]  330 	mov	dptr,#(_m + 0x0003)
   0074 74 E6         [12]  331 	mov	a,#0xE6
   0076 F0            [24]  332 	movx	@dptr,a
   0077 90 10 04      [24]  333 	mov	dptr,#(_m + 0x0004)
   007A 74 E5         [12]  334 	mov	a,#0xE5
   007C F0            [24]  335 	movx	@dptr,a
   007D 90 10 05      [24]  336 	mov	dptr,#(_m + 0x0005)
   0080 74 BC         [12]  337 	mov	a,#0xBC
   0082 F0            [24]  338 	movx	@dptr,a
   0083 90 10 06      [24]  339 	mov	dptr,#(_m + 0x0006)
   0086 74 77         [12]  340 	mov	a,#0x77
   0088 F0            [24]  341 	movx	@dptr,a
   0089 90 10 07      [24]  342 	mov	dptr,#(_m + 0x0007)
   008C 74 A6         [12]  343 	mov	a,#0xA6
   008E F0            [24]  344 	movx	@dptr,a
   008F 90 10 08      [24]  345 	mov	dptr,#(_m + 0x0008)
   0092 74 F8         [12]  346 	mov	a,#0xF8
   0094 F0            [24]  347 	movx	@dptr,a
   0095 90 10 09      [24]  348 	mov	dptr,#(_m + 0x0009)
   0098 74 66         [12]  349 	mov	a,#0x66
   009A F0            [24]  350 	movx	@dptr,a
   009B 90 10 0A      [24]  351 	mov	dptr,#(_m + 0x000a)
   009E 74 9E         [12]  352 	mov	a,#0x9E
   00A0 F0            [24]  353 	movx	@dptr,a
   00A1 90 10 0B      [24]  354 	mov	dptr,#(_m + 0x000b)
   00A4 74 3B         [12]  355 	mov	a,#0x3B
   00A6 F0            [24]  356 	movx	@dptr,a
   00A7 90 10 0C      [24]  357 	mov	dptr,#(_m + 0x000c)
   00AA 74 02         [12]  358 	mov	a,#0x02
   00AC F0            [24]  359 	movx	@dptr,a
   00AD 90 10 0D      [24]  360 	mov	dptr,#(_m + 0x000d)
   00B0 74 F4         [12]  361 	mov	a,#0xF4
   00B2 F0            [24]  362 	movx	@dptr,a
   00B3 90 10 0E      [24]  363 	mov	dptr,#(_m + 0x000e)
   00B6 74 DF         [12]  364 	mov	a,#0xDF
   00B8 F0            [24]  365 	movx	@dptr,a
   00B9 90 10 0F      [24]  366 	mov	dptr,#(_m + 0x000f)
   00BC 74 32         [12]  367 	mov	a,#0x32
   00BE F0            [24]  368 	movx	@dptr,a
   00BF 90 10 10      [24]  369 	mov	dptr,#(_m + 0x0010)
   00C2 74 C8         [12]  370 	mov	a,#0xC8
   00C4 F0            [24]  371 	movx	@dptr,a
   00C5 90 10 11      [24]  372 	mov	dptr,#(_m + 0x0011)
   00C8 74 A7         [12]  373 	mov	a,#0xA7
   00CA F0            [24]  374 	movx	@dptr,a
   00CB 90 10 12      [24]  375 	mov	dptr,#(_m + 0x0012)
   00CE 74 B9         [12]  376 	mov	a,#0xB9
   00D0 F0            [24]  377 	movx	@dptr,a
   00D1 90 10 13      [24]  378 	mov	dptr,#(_m + 0x0013)
   00D4 74 2A         [12]  379 	mov	a,#0x2A
   00D6 F0            [24]  380 	movx	@dptr,a
   00D7 90 10 14      [24]  381 	mov	dptr,#(_m + 0x0014)
   00DA 74 1E         [12]  382 	mov	a,#0x1E
   00DC F0            [24]  383 	movx	@dptr,a
   00DD 90 10 15      [24]  384 	mov	dptr,#(_m + 0x0015)
   00E0 74 BC         [12]  385 	mov	a,#0xBC
   00E2 F0            [24]  386 	movx	@dptr,a
   00E3 90 10 16      [24]  387 	mov	dptr,#(_m + 0x0016)
   00E6 74 08         [12]  388 	mov	a,#0x08
   00E8 F0            [24]  389 	movx	@dptr,a
   00E9 90 10 17      [24]  390 	mov	dptr,#(_m + 0x0017)
   00EC 74 BE         [12]  391 	mov	a,#0xBE
   00EE F0            [24]  392 	movx	@dptr,a
   00EF 90 10 18      [24]  393 	mov	dptr,#(_m + 0x0018)
   00F2 74 86         [12]  394 	mov	a,#0x86
   00F4 F0            [24]  395 	movx	@dptr,a
   00F5 90 10 19      [24]  396 	mov	dptr,#(_m + 0x0019)
   00F8 74 11         [12]  397 	mov	a,#0x11
   00FA F0            [24]  398 	movx	@dptr,a
   00FB 90 10 1A      [24]  399 	mov	dptr,#(_m + 0x001a)
   00FE 74 DE         [12]  400 	mov	a,#0xDE
   0100 F0            [24]  401 	movx	@dptr,a
   0101 90 10 1B      [24]  402 	mov	dptr,#(_m + 0x001b)
   0104 74 2A         [12]  403 	mov	a,#0x2A
   0106 F0            [24]  404 	movx	@dptr,a
   0107 90 10 1C      [24]  405 	mov	dptr,#(_m + 0x001c)
   010A 74 CF         [12]  406 	mov	a,#0xCF
   010C F0            [24]  407 	movx	@dptr,a
   010D 90 10 1D      [24]  408 	mov	dptr,#(_m + 0x001d)
   0110 74 E8         [12]  409 	mov	a,#0xE8
   0112 F0            [24]  410 	movx	@dptr,a
   0113 90 10 1E      [24]  411 	mov	dptr,#(_m + 0x001e)
   0116 74 88         [12]  412 	mov	a,#0x88
   0118 F0            [24]  413 	movx	@dptr,a
   0119 90 10 1F      [24]  414 	mov	dptr,#(_m + 0x001f)
   011C 74 8E         [12]  415 	mov	a,#0x8E
   011E F0            [24]  416 	movx	@dptr,a
   011F 90 10 20      [24]  417 	mov	dptr,#(_m + 0x0020)
   0122 74 3B         [12]  418 	mov	a,#0x3B
   0124 F0            [24]  419 	movx	@dptr,a
   0125 90 10 21      [24]  420 	mov	dptr,#(_m + 0x0021)
   0128 74 5C         [12]  421 	mov	a,#0x5C
   012A F0            [24]  422 	movx	@dptr,a
   012B 90 10 22      [24]  423 	mov	dptr,#(_m + 0x0022)
   012E 74 6A         [12]  424 	mov	a,#0x6A
   0130 F0            [24]  425 	movx	@dptr,a
   0131 90 10 23      [24]  426 	mov	dptr,#(_m + 0x0023)
   0134 74 71         [12]  427 	mov	a,#0x71
   0136 F0            [24]  428 	movx	@dptr,a
   0137 90 10 24      [24]  429 	mov	dptr,#(_m + 0x0024)
   013A 74 47         [12]  430 	mov	a,#0x47
   013C F0            [24]  431 	movx	@dptr,a
   013D 90 10 25      [24]  432 	mov	dptr,#(_m + 0x0025)
   0140 74 3C         [12]  433 	mov	a,#0x3C
   0142 F0            [24]  434 	movx	@dptr,a
   0143 90 10 26      [24]  435 	mov	dptr,#(_m + 0x0026)
   0146 74 45         [12]  436 	mov	a,#0x45
   0148 F0            [24]  437 	movx	@dptr,a
   0149 90 10 27      [24]  438 	mov	dptr,#(_m + 0x0027)
   014C 74 05         [12]  439 	mov	a,#0x05
   014E F0            [24]  440 	movx	@dptr,a
   014F 90 10 28      [24]  441 	mov	dptr,#(_m + 0x0028)
   0152 74 46         [12]  442 	mov	a,#0x46
   0154 F0            [24]  443 	movx	@dptr,a
   0155 90 10 29      [24]  444 	mov	dptr,#(_m + 0x0029)
   0158 74 E4         [12]  445 	mov	a,#0xE4
   015A F0            [24]  446 	movx	@dptr,a
   015B 90 10 2A      [24]  447 	mov	dptr,#(_m + 0x002a)
   015E 74 AD         [12]  448 	mov	a,#0xAD
   0160 F0            [24]  449 	movx	@dptr,a
   0161 90 10 2B      [24]  450 	mov	dptr,#(_m + 0x002b)
   0164 74 93         [12]  451 	mov	a,#0x93
   0166 F0            [24]  452 	movx	@dptr,a
   0167 90 10 2C      [24]  453 	mov	dptr,#(_m + 0x002c)
   016A 74 42         [12]  454 	mov	a,#0x42
   016C F0            [24]  455 	movx	@dptr,a
   016D 90 10 2D      [24]  456 	mov	dptr,#(_m + 0x002d)
   0170 74 1F         [12]  457 	mov	a,#0x1F
   0172 F0            [24]  458 	movx	@dptr,a
   0173 90 10 2E      [24]  459 	mov	dptr,#(_m + 0x002e)
   0176 74 77         [12]  460 	mov	a,#0x77
   0178 F0            [24]  461 	movx	@dptr,a
   0179 90 10 2F      [24]  462 	mov	dptr,#(_m + 0x002f)
   017C 74 DC         [12]  463 	mov	a,#0xDC
   017E F0            [24]  464 	movx	@dptr,a
   017F 90 10 30      [24]  465 	mov	dptr,#(_m + 0x0030)
   0182 74 25         [12]  466 	mov	a,#0x25
   0184 F0            [24]  467 	movx	@dptr,a
   0185 90 10 31      [24]  468 	mov	dptr,#(_m + 0x0031)
   0188 74 97         [12]  469 	mov	a,#0x97
   018A F0            [24]  470 	movx	@dptr,a
   018B 90 10 32      [24]  471 	mov	dptr,#(_m + 0x0032)
   018E 74 70         [12]  472 	mov	a,#0x70
   0190 F0            [24]  473 	movx	@dptr,a
   0191 90 10 33      [24]  474 	mov	dptr,#(_m + 0x0033)
   0194 74 E1         [12]  475 	mov	a,#0xE1
   0196 F0            [24]  476 	movx	@dptr,a
   0197 90 10 34      [24]  477 	mov	dptr,#(_m + 0x0034)
   019A 74 B5         [12]  478 	mov	a,#0xB5
   019C F0            [24]  479 	movx	@dptr,a
   019D 90 10 35      [24]  480 	mov	dptr,#(_m + 0x0035)
   01A0 74 EB         [12]  481 	mov	a,#0xEB
   01A2 F0            [24]  482 	movx	@dptr,a
   01A3 90 10 36      [24]  483 	mov	dptr,#(_m + 0x0036)
   01A6 74 89         [12]  484 	mov	a,#0x89
   01A8 F0            [24]  485 	movx	@dptr,a
   01A9 90 10 37      [24]  486 	mov	dptr,#(_m + 0x0037)
   01AC 74 7F         [12]  487 	mov	a,#0x7F
   01AE F0            [24]  488 	movx	@dptr,a
   01AF 90 10 38      [24]  489 	mov	dptr,#(_m + 0x0038)
   01B2 74 A9         [12]  490 	mov	a,#0xA9
   01B4 F0            [24]  491 	movx	@dptr,a
   01B5 90 10 39      [24]  492 	mov	dptr,#(_m + 0x0039)
   01B8 74 1E         [12]  493 	mov	a,#0x1E
   01BA F0            [24]  494 	movx	@dptr,a
   01BB 90 10 3A      [24]  495 	mov	dptr,#(_m + 0x003a)
   01BE 74 50         [12]  496 	mov	a,#0x50
   01C0 F0            [24]  497 	movx	@dptr,a
   01C1 90 10 3B      [24]  498 	mov	dptr,#(_m + 0x003b)
   01C4 74 1D         [12]  499 	mov	a,#0x1D
   01C6 F0            [24]  500 	movx	@dptr,a
   01C7 90 10 3C      [24]  501 	mov	dptr,#(_m + 0x003c)
   01CA 74 33         [12]  502 	mov	a,#0x33
   01CC F0            [24]  503 	movx	@dptr,a
   01CD 90 10 3D      [24]  504 	mov	dptr,#(_m + 0x003d)
   01D0 74 99         [12]  505 	mov	a,#0x99
   01D2 F0            [24]  506 	movx	@dptr,a
   01D3 90 10 3E      [24]  507 	mov	dptr,#(_m + 0x003e)
   01D6 74 3C         [12]  508 	mov	a,#0x3C
   01D8 F0            [24]  509 	movx	@dptr,a
   01D9 90 10 3F      [24]  510 	mov	dptr,#(_m + 0x003f)
   01DC 74 09         [12]  511 	mov	a,#0x09
   01DE F0            [24]  512 	movx	@dptr,a
   01DF 90 10 40      [24]  513 	mov	dptr,#(_m + 0x0040)
   01E2 74 68         [12]  514 	mov	a,#0x68
   01E4 F0            [24]  515 	movx	@dptr,a
   01E5 90 10 41      [24]  516 	mov	dptr,#(_m + 0x0041)
   01E8 74 E4         [12]  517 	mov	a,#0xE4
   01EA F0            [24]  518 	movx	@dptr,a
   01EB 90 10 42      [24]  519 	mov	dptr,#(_m + 0x0042)
   01EE 74 1A         [12]  520 	mov	a,#0x1A
   01F0 F0            [24]  521 	movx	@dptr,a
   01F1 90 10 43      [24]  522 	mov	dptr,#(_m + 0x0043)
   01F4 74 CF         [12]  523 	mov	a,#0xCF
   01F6 F0            [24]  524 	movx	@dptr,a
   01F7 90 10 44      [24]  525 	mov	dptr,#(_m + 0x0044)
   01FA 74 B0         [12]  526 	mov	a,#0xB0
   01FC F0            [24]  527 	movx	@dptr,a
   01FD 90 10 45      [24]  528 	mov	dptr,#(_m + 0x0045)
   0200 74 1E         [12]  529 	mov	a,#0x1E
   0202 F0            [24]  530 	movx	@dptr,a
   0203 90 10 46      [24]  531 	mov	dptr,#(_m + 0x0046)
   0206 74 BA         [12]  532 	mov	a,#0xBA
   0208 F0            [24]  533 	movx	@dptr,a
   0209 90 10 47      [24]  534 	mov	dptr,#(_m + 0x0047)
   020C 74 56         [12]  535 	mov	a,#0x56
   020E F0            [24]  536 	movx	@dptr,a
   020F 90 10 48      [24]  537 	mov	dptr,#(_m + 0x0048)
   0212 74 24         [12]  538 	mov	a,#0x24
   0214 F0            [24]  539 	movx	@dptr,a
   0215 90 10 49      [24]  540 	mov	dptr,#(_m + 0x0049)
   0218 74 7C         [12]  541 	mov	a,#0x7C
   021A F0            [24]  542 	movx	@dptr,a
   021B 90 10 4A      [24]  543 	mov	dptr,#(_m + 0x004a)
   021E 74 8E         [12]  544 	mov	a,#0x8E
   0220 F0            [24]  545 	movx	@dptr,a
   0221 90 10 4B      [24]  546 	mov	dptr,#(_m + 0x004b)
   0224 74 35         [12]  547 	mov	a,#0x35
   0226 F0            [24]  548 	movx	@dptr,a
   0227 90 10 4C      [24]  549 	mov	dptr,#(_m + 0x004c)
   022A 74 84         [12]  550 	mov	a,#0x84
   022C F0            [24]  551 	movx	@dptr,a
   022D 90 10 4D      [24]  552 	mov	dptr,#(_m + 0x004d)
   0230 74 E0         [12]  553 	mov	a,#0xE0
   0232 F0            [24]  554 	movx	@dptr,a
   0233 90 10 4E      [24]  555 	mov	dptr,#(_m + 0x004e)
   0236 74 AA         [12]  556 	mov	a,#0xAA
   0238 F0            [24]  557 	movx	@dptr,a
   0239 90 10 4F      [24]  558 	mov	dptr,#(_m + 0x004f)
   023C 74 2D         [12]  559 	mov	a,#0x2D
   023E F0            [24]  560 	movx	@dptr,a
   023F 90 10 50      [24]  561 	mov	dptr,#(_m + 0x0050)
   0242 74 EC         [12]  562 	mov	a,#0xEC
   0244 F0            [24]  563 	movx	@dptr,a
   0245 90 10 51      [24]  564 	mov	dptr,#(_m + 0x0051)
   0248 74 58         [12]  565 	mov	a,#0x58
   024A F0            [24]  566 	movx	@dptr,a
   024B 90 10 52      [24]  567 	mov	dptr,#(_m + 0x0052)
   024E 74 A0         [12]  568 	mov	a,#0xA0
   0250 F0            [24]  569 	movx	@dptr,a
   0251 90 10 53      [24]  570 	mov	dptr,#(_m + 0x0053)
   0254 74 4D         [12]  571 	mov	a,#0x4D
   0256 F0            [24]  572 	movx	@dptr,a
   0257 90 10 54      [24]  573 	mov	dptr,#(_m + 0x0054)
   025A 74 89         [12]  574 	mov	a,#0x89
   025C F0            [24]  575 	movx	@dptr,a
   025D 90 10 55      [24]  576 	mov	dptr,#(_m + 0x0055)
   0260 74 8A         [12]  577 	mov	a,#0x8A
   0262 F0            [24]  578 	movx	@dptr,a
   0263 90 10 56      [24]  579 	mov	dptr,#(_m + 0x0056)
   0266 74 02         [12]  580 	mov	a,#0x02
   0268 F0            [24]  581 	movx	@dptr,a
   0269 90 10 57      [24]  582 	mov	dptr,#(_m + 0x0057)
   026C 74 27         [12]  583 	mov	a,#0x27
   026E F0            [24]  584 	movx	@dptr,a
   026F 90 10 58      [24]  585 	mov	dptr,#(_m + 0x0058)
   0272 74 38         [12]  586 	mov	a,#0x38
   0274 F0            [24]  587 	movx	@dptr,a
   0275 90 10 59      [24]  588 	mov	dptr,#(_m + 0x0059)
   0278 74 54         [12]  589 	mov	a,#0x54
   027A F0            [24]  590 	movx	@dptr,a
   027B 90 10 5A      [24]  591 	mov	dptr,#(_m + 0x005a)
   027E 74 2E         [12]  592 	mov	a,#0x2E
   0280 F0            [24]  593 	movx	@dptr,a
   0281 90 10 5B      [24]  594 	mov	dptr,#(_m + 0x005b)
   0284 74 4F         [12]  595 	mov	a,#0x4F
   0286 F0            [24]  596 	movx	@dptr,a
   0287 90 10 5C      [24]  597 	mov	dptr,#(_m + 0x005c)
   028A 74 B2         [12]  598 	mov	a,#0xB2
   028C F0            [24]  599 	movx	@dptr,a
   028D 90 10 5D      [24]  600 	mov	dptr,#(_m + 0x005d)
   0290 74 96         [12]  601 	mov	a,#0x96
   0292 F0            [24]  602 	movx	@dptr,a
   0293 90 10 5E      [24]  603 	mov	dptr,#(_m + 0x005e)
   0296 74 AB         [12]  604 	mov	a,#0xAB
   0298 F0            [24]  605 	movx	@dptr,a
   0299 90 10 5F      [24]  606 	mov	dptr,#(_m + 0x005f)
   029C 74 29         [12]  607 	mov	a,#0x29
   029E F0            [24]  608 	movx	@dptr,a
   029F 90 10 60      [24]  609 	mov	dptr,#(_m + 0x0060)
   02A2 74 01         [12]  610 	mov	a,#0x01
   02A4 F0            [24]  611 	movx	@dptr,a
   02A5 90 10 61      [24]  612 	mov	dptr,#(_m + 0x0061)
   02A8 74 21         [12]  613 	mov	a,#0x21
   02AA F0            [24]  614 	movx	@dptr,a
   02AB 90 10 62      [24]  615 	mov	dptr,#(_m + 0x0062)
   02AE 74 07         [12]  616 	mov	a,#0x07
   02B0 F0            [24]  617 	movx	@dptr,a
   02B1 90 10 63      [24]  618 	mov	dptr,#(_m + 0x0063)
   02B4 74 F9         [12]  619 	mov	a,#0xF9
   02B6 F0            [24]  620 	movx	@dptr,a
   02B7 90 10 64      [24]  621 	mov	dptr,#(_m + 0x0064)
   02BA 74 85         [12]  622 	mov	a,#0x85
   02BC F0            [24]  623 	movx	@dptr,a
   02BD 90 10 65      [24]  624 	mov	dptr,#(_m + 0x0065)
   02C0 74 01         [12]  625 	mov	a,#0x01
   02C2 F0            [24]  626 	movx	@dptr,a
   02C3 90 10 66      [24]  627 	mov	dptr,#(_m + 0x0066)
   02C6 74 99         [12]  628 	mov	a,#0x99
   02C8 F0            [24]  629 	movx	@dptr,a
   02C9 90 10 67      [24]  630 	mov	dptr,#(_m + 0x0067)
   02CC 74 E7         [12]  631 	mov	a,#0xE7
   02CE F0            [24]  632 	movx	@dptr,a
   02CF 90 10 68      [24]  633 	mov	dptr,#(_m + 0x0068)
   02D2 74 FE         [12]  634 	mov	a,#0xFE
   02D4 F0            [24]  635 	movx	@dptr,a
   02D5 90 10 69      [24]  636 	mov	dptr,#(_m + 0x0069)
   02D8 74 F8         [12]  637 	mov	a,#0xF8
   02DA F0            [24]  638 	movx	@dptr,a
   02DB 90 10 6A      [24]  639 	mov	dptr,#(_m + 0x006a)
   02DE 74 9A         [12]  640 	mov	a,#0x9A
   02E0 F0            [24]  641 	movx	@dptr,a
   02E1 90 10 6B      [24]  642 	mov	dptr,#(_m + 0x006b)
   02E4 74 19         [12]  643 	mov	a,#0x19
   02E6 F0            [24]  644 	movx	@dptr,a
   02E7 90 10 6C      [24]  645 	mov	dptr,#(_m + 0x006c)
   02EA 74 6D         [12]  646 	mov	a,#0x6D
   02EC F0            [24]  647 	movx	@dptr,a
   02ED 90 10 6D      [24]  648 	mov	dptr,#(_m + 0x006d)
   02F0 74 92         [12]  649 	mov	a,#0x92
   02F2 F0            [24]  650 	movx	@dptr,a
   02F3 90 10 6E      [24]  651 	mov	dptr,#(_m + 0x006e)
   02F6 74 87         [12]  652 	mov	a,#0x87
   02F8 F0            [24]  653 	movx	@dptr,a
   02F9 90 10 6F      [24]  654 	mov	dptr,#(_m + 0x006f)
   02FC 74 68         [12]  655 	mov	a,#0x68
   02FE F0            [24]  656 	movx	@dptr,a
   02FF 90 10 70      [24]  657 	mov	dptr,#(_m + 0x0070)
   0302 74 0E         [12]  658 	mov	a,#0x0E
   0304 F0            [24]  659 	movx	@dptr,a
   0305 90 10 71      [24]  660 	mov	dptr,#(_m + 0x0071)
   0308 74 45         [12]  661 	mov	a,#0x45
   030A F0            [24]  662 	movx	@dptr,a
   030B 90 10 72      [24]  663 	mov	dptr,#(_m + 0x0072)
   030E 74 B0         [12]  664 	mov	a,#0xB0
   0310 F0            [24]  665 	movx	@dptr,a
   0311 90 10 73      [24]  666 	mov	dptr,#(_m + 0x0073)
   0314 74 CF         [12]  667 	mov	a,#0xCF
   0316 F0            [24]  668 	movx	@dptr,a
   0317 90 10 74      [24]  669 	mov	dptr,#(_m + 0x0074)
   031A 74 D9         [12]  670 	mov	a,#0xD9
   031C F0            [24]  671 	movx	@dptr,a
   031D 90 10 75      [24]  672 	mov	dptr,#(_m + 0x0075)
   0320 74 3D         [12]  673 	mov	a,#0x3D
   0322 F0            [24]  674 	movx	@dptr,a
   0323 90 10 76      [24]  675 	mov	dptr,#(_m + 0x0076)
   0326 74 A5         [12]  676 	mov	a,#0xA5
   0328 F0            [24]  677 	movx	@dptr,a
   0329 90 10 77      [24]  678 	mov	dptr,#(_m + 0x0077)
   032C 74 36         [12]  679 	mov	a,#0x36
   032E F0            [24]  680 	movx	@dptr,a
   032F 90 10 78      [24]  681 	mov	dptr,#(_m + 0x0078)
   0332 74 2C         [12]  682 	mov	a,#0x2C
   0334 F0            [24]  683 	movx	@dptr,a
   0335 90 10 79      [24]  684 	mov	dptr,#(_m + 0x0079)
   0338 74 98         [12]  685 	mov	a,#0x98
   033A F0            [24]  686 	movx	@dptr,a
   033B 90 10 7A      [24]  687 	mov	dptr,#(_m + 0x007a)
   033E 74 D3         [12]  688 	mov	a,#0xD3
   0340 F0            [24]  689 	movx	@dptr,a
   0341 90 10 7B      [24]  690 	mov	dptr,#(_m + 0x007b)
   0344 74 0E         [12]  691 	mov	a,#0x0E
   0346 F0            [24]  692 	movx	@dptr,a
   0347 90 10 7C      [24]  693 	mov	dptr,#(_m + 0x007c)
   034A 74 D6         [12]  694 	mov	a,#0xD6
   034C F0            [24]  695 	movx	@dptr,a
   034D 90 10 7D      [24]  696 	mov	dptr,#(_m + 0x007d)
   0350 74 B4         [12]  697 	mov	a,#0xB4
   0352 F0            [24]  698 	movx	@dptr,a
   0353 90 10 7E      [24]  699 	mov	dptr,#(_m + 0x007e)
   0356 74 D3         [12]  700 	mov	a,#0xD3
   0358 F0            [24]  701 	movx	@dptr,a
   0359 90 10 7F      [24]  702 	mov	dptr,#(_m + 0x007f)
   035C 74 D1         [12]  703 	mov	a,#0xD1
   035E F0            [24]  704 	movx	@dptr,a
   035F 90 10 80      [24]  705 	mov	dptr,#(_m + 0x0080)
   0362 E4            [12]  706 	clr	a
   0363 F0            [24]  707 	movx	@dptr,a
   0364 90 10 81      [24]  708 	mov	dptr,#(_m + 0x0081)
   0367 F0            [24]  709 	movx	@dptr,a
   0368 90 10 82      [24]  710 	mov	dptr,#(_m + 0x0082)
   036B F0            [24]  711 	movx	@dptr,a
   036C 90 10 83      [24]  712 	mov	dptr,#(_m + 0x0083)
   036F F0            [24]  713 	movx	@dptr,a
   0370 90 10 84      [24]  714 	mov	dptr,#(_m + 0x0084)
   0373 E4            [12]  715 	clr	a
   0374 F0            [24]  716 	movx	@dptr,a
   0375 90 10 85      [24]  717 	mov	dptr,#(_m + 0x0085)
   0378 F0            [24]  718 	movx	@dptr,a
   0379 90 10 86      [24]  719 	mov	dptr,#(_m + 0x0086)
   037C F0            [24]  720 	movx	@dptr,a
   037D 90 10 87      [24]  721 	mov	dptr,#(_m + 0x0087)
   0380 F0            [24]  722 	movx	@dptr,a
   0381 90 10 88      [24]  723 	mov	dptr,#(_m + 0x0088)
   0384 E4            [12]  724 	clr	a
   0385 F0            [24]  725 	movx	@dptr,a
   0386 90 10 89      [24]  726 	mov	dptr,#(_m + 0x0089)
   0389 F0            [24]  727 	movx	@dptr,a
   038A 90 10 8A      [24]  728 	mov	dptr,#(_m + 0x008a)
   038D F0            [24]  729 	movx	@dptr,a
   038E 90 10 8B      [24]  730 	mov	dptr,#(_m + 0x008b)
   0391 F0            [24]  731 	movx	@dptr,a
   0392 90 10 8C      [24]  732 	mov	dptr,#(_m + 0x008c)
   0395 E4            [12]  733 	clr	a
   0396 F0            [24]  734 	movx	@dptr,a
   0397 90 10 8D      [24]  735 	mov	dptr,#(_m + 0x008d)
   039A F0            [24]  736 	movx	@dptr,a
   039B 90 10 8E      [24]  737 	mov	dptr,#(_m + 0x008e)
   039E F0            [24]  738 	movx	@dptr,a
   039F 90 10 8F      [24]  739 	mov	dptr,#(_m + 0x008f)
   03A2 F0            [24]  740 	movx	@dptr,a
   03A3 90 10 90      [24]  741 	mov	dptr,#(_m + 0x0090)
   03A6 E4            [12]  742 	clr	a
   03A7 F0            [24]  743 	movx	@dptr,a
   03A8 90 10 91      [24]  744 	mov	dptr,#(_m + 0x0091)
   03AB F0            [24]  745 	movx	@dptr,a
   03AC 90 10 92      [24]  746 	mov	dptr,#(_m + 0x0092)
   03AF F0            [24]  747 	movx	@dptr,a
   03B0 90 10 93      [24]  748 	mov	dptr,#(_m + 0x0093)
   03B3 F0            [24]  749 	movx	@dptr,a
   03B4 90 10 94      [24]  750 	mov	dptr,#(_m + 0x0094)
   03B7 E4            [12]  751 	clr	a
   03B8 F0            [24]  752 	movx	@dptr,a
   03B9 90 10 95      [24]  753 	mov	dptr,#(_m + 0x0095)
   03BC F0            [24]  754 	movx	@dptr,a
   03BD 90 10 96      [24]  755 	mov	dptr,#(_m + 0x0096)
   03C0 F0            [24]  756 	movx	@dptr,a
   03C1 90 10 97      [24]  757 	mov	dptr,#(_m + 0x0097)
   03C4 F0            [24]  758 	movx	@dptr,a
   03C5 90 10 98      [24]  759 	mov	dptr,#(_m + 0x0098)
   03C8 E4            [12]  760 	clr	a
   03C9 F0            [24]  761 	movx	@dptr,a
   03CA 90 10 99      [24]  762 	mov	dptr,#(_m + 0x0099)
   03CD F0            [24]  763 	movx	@dptr,a
   03CE 90 10 9A      [24]  764 	mov	dptr,#(_m + 0x009a)
   03D1 F0            [24]  765 	movx	@dptr,a
   03D2 90 10 9B      [24]  766 	mov	dptr,#(_m + 0x009b)
   03D5 F0            [24]  767 	movx	@dptr,a
   03D6 90 10 9C      [24]  768 	mov	dptr,#(_m + 0x009c)
   03D9 E4            [12]  769 	clr	a
   03DA F0            [24]  770 	movx	@dptr,a
   03DB 90 10 9D      [24]  771 	mov	dptr,#(_m + 0x009d)
   03DE F0            [24]  772 	movx	@dptr,a
   03DF 90 10 9E      [24]  773 	mov	dptr,#(_m + 0x009e)
   03E2 F0            [24]  774 	movx	@dptr,a
   03E3 90 10 9F      [24]  775 	mov	dptr,#(_m + 0x009f)
   03E6 F0            [24]  776 	movx	@dptr,a
   03E7 90 10 A0      [24]  777 	mov	dptr,#(_m + 0x00a0)
   03EA E4            [12]  778 	clr	a
   03EB F0            [24]  779 	movx	@dptr,a
   03EC 90 10 A1      [24]  780 	mov	dptr,#(_m + 0x00a1)
   03EF F0            [24]  781 	movx	@dptr,a
   03F0 90 10 A2      [24]  782 	mov	dptr,#(_m + 0x00a2)
   03F3 F0            [24]  783 	movx	@dptr,a
   03F4 90 10 A3      [24]  784 	mov	dptr,#(_m + 0x00a3)
   03F7 F0            [24]  785 	movx	@dptr,a
   03F8 90 10 A4      [24]  786 	mov	dptr,#(_m + 0x00a4)
   03FB E4            [12]  787 	clr	a
   03FC F0            [24]  788 	movx	@dptr,a
   03FD 90 10 A5      [24]  789 	mov	dptr,#(_m + 0x00a5)
   0400 F0            [24]  790 	movx	@dptr,a
   0401 90 10 A6      [24]  791 	mov	dptr,#(_m + 0x00a6)
   0404 F0            [24]  792 	movx	@dptr,a
   0405 90 10 A7      [24]  793 	mov	dptr,#(_m + 0x00a7)
   0408 F0            [24]  794 	movx	@dptr,a
   0409 90 10 A8      [24]  795 	mov	dptr,#(_m + 0x00a8)
   040C E4            [12]  796 	clr	a
   040D F0            [24]  797 	movx	@dptr,a
   040E 90 10 A9      [24]  798 	mov	dptr,#(_m + 0x00a9)
   0411 F0            [24]  799 	movx	@dptr,a
   0412 90 10 AA      [24]  800 	mov	dptr,#(_m + 0x00aa)
   0415 F0            [24]  801 	movx	@dptr,a
   0416 90 10 AB      [24]  802 	mov	dptr,#(_m + 0x00ab)
   0419 F0            [24]  803 	movx	@dptr,a
   041A 90 10 AC      [24]  804 	mov	dptr,#(_m + 0x00ac)
   041D E4            [12]  805 	clr	a
   041E F0            [24]  806 	movx	@dptr,a
   041F 90 10 AD      [24]  807 	mov	dptr,#(_m + 0x00ad)
   0422 F0            [24]  808 	movx	@dptr,a
   0423 90 10 AE      [24]  809 	mov	dptr,#(_m + 0x00ae)
   0426 F0            [24]  810 	movx	@dptr,a
   0427 90 10 AF      [24]  811 	mov	dptr,#(_m + 0x00af)
   042A F0            [24]  812 	movx	@dptr,a
   042B 90 10 B0      [24]  813 	mov	dptr,#(_m + 0x00b0)
   042E E4            [12]  814 	clr	a
   042F F0            [24]  815 	movx	@dptr,a
   0430 90 10 B1      [24]  816 	mov	dptr,#(_m + 0x00b1)
   0433 F0            [24]  817 	movx	@dptr,a
   0434 90 10 B2      [24]  818 	mov	dptr,#(_m + 0x00b2)
   0437 F0            [24]  819 	movx	@dptr,a
   0438 90 10 B3      [24]  820 	mov	dptr,#(_m + 0x00b3)
   043B F0            [24]  821 	movx	@dptr,a
   043C 90 10 B4      [24]  822 	mov	dptr,#(_m + 0x00b4)
   043F E4            [12]  823 	clr	a
   0440 F0            [24]  824 	movx	@dptr,a
   0441 90 10 B5      [24]  825 	mov	dptr,#(_m + 0x00b5)
   0444 F0            [24]  826 	movx	@dptr,a
   0445 90 10 B6      [24]  827 	mov	dptr,#(_m + 0x00b6)
   0448 F0            [24]  828 	movx	@dptr,a
   0449 90 10 B7      [24]  829 	mov	dptr,#(_m + 0x00b7)
   044C F0            [24]  830 	movx	@dptr,a
   044D 90 10 B8      [24]  831 	mov	dptr,#(_m + 0x00b8)
   0450 E4            [12]  832 	clr	a
   0451 F0            [24]  833 	movx	@dptr,a
   0452 90 10 B9      [24]  834 	mov	dptr,#(_m + 0x00b9)
   0455 F0            [24]  835 	movx	@dptr,a
   0456 90 10 BA      [24]  836 	mov	dptr,#(_m + 0x00ba)
   0459 F0            [24]  837 	movx	@dptr,a
   045A 90 10 BB      [24]  838 	mov	dptr,#(_m + 0x00bb)
   045D F0            [24]  839 	movx	@dptr,a
   045E 90 10 BC      [24]  840 	mov	dptr,#(_m + 0x00bc)
   0461 E4            [12]  841 	clr	a
   0462 F0            [24]  842 	movx	@dptr,a
   0463 90 10 BD      [24]  843 	mov	dptr,#(_m + 0x00bd)
   0466 F0            [24]  844 	movx	@dptr,a
   0467 90 10 BE      [24]  845 	mov	dptr,#(_m + 0x00be)
   046A F0            [24]  846 	movx	@dptr,a
   046B 90 10 BF      [24]  847 	mov	dptr,#(_m + 0x00bf)
   046E F0            [24]  848 	movx	@dptr,a
   046F 90 10 C0      [24]  849 	mov	dptr,#(_m + 0x00c0)
   0472 E4            [12]  850 	clr	a
   0473 F0            [24]  851 	movx	@dptr,a
   0474 90 10 C1      [24]  852 	mov	dptr,#(_m + 0x00c1)
   0477 F0            [24]  853 	movx	@dptr,a
   0478 90 10 C2      [24]  854 	mov	dptr,#(_m + 0x00c2)
   047B F0            [24]  855 	movx	@dptr,a
   047C 90 10 C3      [24]  856 	mov	dptr,#(_m + 0x00c3)
   047F F0            [24]  857 	movx	@dptr,a
   0480 90 10 C4      [24]  858 	mov	dptr,#(_m + 0x00c4)
   0483 E4            [12]  859 	clr	a
   0484 F0            [24]  860 	movx	@dptr,a
   0485 90 10 C5      [24]  861 	mov	dptr,#(_m + 0x00c5)
   0488 F0            [24]  862 	movx	@dptr,a
   0489 90 10 C6      [24]  863 	mov	dptr,#(_m + 0x00c6)
   048C F0            [24]  864 	movx	@dptr,a
   048D 90 10 C7      [24]  865 	mov	dptr,#(_m + 0x00c7)
   0490 F0            [24]  866 	movx	@dptr,a
   0491 90 10 C8      [24]  867 	mov	dptr,#(_m + 0x00c8)
   0494 E4            [12]  868 	clr	a
   0495 F0            [24]  869 	movx	@dptr,a
   0496 90 10 C9      [24]  870 	mov	dptr,#(_m + 0x00c9)
   0499 F0            [24]  871 	movx	@dptr,a
   049A 90 10 CA      [24]  872 	mov	dptr,#(_m + 0x00ca)
   049D F0            [24]  873 	movx	@dptr,a
   049E 90 10 CB      [24]  874 	mov	dptr,#(_m + 0x00cb)
   04A1 F0            [24]  875 	movx	@dptr,a
   04A2 90 10 CC      [24]  876 	mov	dptr,#(_m + 0x00cc)
   04A5 E4            [12]  877 	clr	a
   04A6 F0            [24]  878 	movx	@dptr,a
   04A7 90 10 CD      [24]  879 	mov	dptr,#(_m + 0x00cd)
   04AA F0            [24]  880 	movx	@dptr,a
   04AB 90 10 CE      [24]  881 	mov	dptr,#(_m + 0x00ce)
   04AE F0            [24]  882 	movx	@dptr,a
   04AF 90 10 CF      [24]  883 	mov	dptr,#(_m + 0x00cf)
   04B2 F0            [24]  884 	movx	@dptr,a
   04B3 90 10 D0      [24]  885 	mov	dptr,#(_m + 0x00d0)
   04B6 E4            [12]  886 	clr	a
   04B7 F0            [24]  887 	movx	@dptr,a
   04B8 90 10 D1      [24]  888 	mov	dptr,#(_m + 0x00d1)
   04BB F0            [24]  889 	movx	@dptr,a
   04BC 90 10 D2      [24]  890 	mov	dptr,#(_m + 0x00d2)
   04BF F0            [24]  891 	movx	@dptr,a
   04C0 90 10 D3      [24]  892 	mov	dptr,#(_m + 0x00d3)
   04C3 F0            [24]  893 	movx	@dptr,a
   04C4 90 10 D4      [24]  894 	mov	dptr,#(_m + 0x00d4)
   04C7 E4            [12]  895 	clr	a
   04C8 F0            [24]  896 	movx	@dptr,a
   04C9 90 10 D5      [24]  897 	mov	dptr,#(_m + 0x00d5)
   04CC F0            [24]  898 	movx	@dptr,a
   04CD 90 10 D6      [24]  899 	mov	dptr,#(_m + 0x00d6)
   04D0 F0            [24]  900 	movx	@dptr,a
   04D1 90 10 D7      [24]  901 	mov	dptr,#(_m + 0x00d7)
   04D4 F0            [24]  902 	movx	@dptr,a
   04D5 90 10 D8      [24]  903 	mov	dptr,#(_m + 0x00d8)
   04D8 E4            [12]  904 	clr	a
   04D9 F0            [24]  905 	movx	@dptr,a
   04DA 90 10 D9      [24]  906 	mov	dptr,#(_m + 0x00d9)
   04DD F0            [24]  907 	movx	@dptr,a
   04DE 90 10 DA      [24]  908 	mov	dptr,#(_m + 0x00da)
   04E1 F0            [24]  909 	movx	@dptr,a
   04E2 90 10 DB      [24]  910 	mov	dptr,#(_m + 0x00db)
   04E5 F0            [24]  911 	movx	@dptr,a
   04E6 90 10 DC      [24]  912 	mov	dptr,#(_m + 0x00dc)
   04E9 E4            [12]  913 	clr	a
   04EA F0            [24]  914 	movx	@dptr,a
   04EB 90 10 DD      [24]  915 	mov	dptr,#(_m + 0x00dd)
   04EE F0            [24]  916 	movx	@dptr,a
   04EF 90 10 DE      [24]  917 	mov	dptr,#(_m + 0x00de)
   04F2 F0            [24]  918 	movx	@dptr,a
   04F3 90 10 DF      [24]  919 	mov	dptr,#(_m + 0x00df)
   04F6 F0            [24]  920 	movx	@dptr,a
   04F7 90 10 E0      [24]  921 	mov	dptr,#(_m + 0x00e0)
   04FA E4            [12]  922 	clr	a
   04FB F0            [24]  923 	movx	@dptr,a
   04FC 90 10 E1      [24]  924 	mov	dptr,#(_m + 0x00e1)
   04FF F0            [24]  925 	movx	@dptr,a
   0500 90 10 E2      [24]  926 	mov	dptr,#(_m + 0x00e2)
   0503 F0            [24]  927 	movx	@dptr,a
   0504 90 10 E3      [24]  928 	mov	dptr,#(_m + 0x00e3)
   0507 F0            [24]  929 	movx	@dptr,a
   0508 90 10 E4      [24]  930 	mov	dptr,#(_m + 0x00e4)
   050B E4            [12]  931 	clr	a
   050C F0            [24]  932 	movx	@dptr,a
   050D 90 10 E5      [24]  933 	mov	dptr,#(_m + 0x00e5)
   0510 F0            [24]  934 	movx	@dptr,a
   0511 90 10 E6      [24]  935 	mov	dptr,#(_m + 0x00e6)
   0514 F0            [24]  936 	movx	@dptr,a
   0515 90 10 E7      [24]  937 	mov	dptr,#(_m + 0x00e7)
   0518 F0            [24]  938 	movx	@dptr,a
   0519 90 10 E8      [24]  939 	mov	dptr,#(_m + 0x00e8)
   051C E4            [12]  940 	clr	a
   051D F0            [24]  941 	movx	@dptr,a
   051E 90 10 E9      [24]  942 	mov	dptr,#(_m + 0x00e9)
   0521 F0            [24]  943 	movx	@dptr,a
   0522 90 10 EA      [24]  944 	mov	dptr,#(_m + 0x00ea)
   0525 F0            [24]  945 	movx	@dptr,a
   0526 90 10 EB      [24]  946 	mov	dptr,#(_m + 0x00eb)
   0529 F0            [24]  947 	movx	@dptr,a
   052A 90 10 EC      [24]  948 	mov	dptr,#(_m + 0x00ec)
   052D E4            [12]  949 	clr	a
   052E F0            [24]  950 	movx	@dptr,a
   052F 90 10 ED      [24]  951 	mov	dptr,#(_m + 0x00ed)
   0532 F0            [24]  952 	movx	@dptr,a
   0533 90 10 EE      [24]  953 	mov	dptr,#(_m + 0x00ee)
   0536 F0            [24]  954 	movx	@dptr,a
   0537 90 10 EF      [24]  955 	mov	dptr,#(_m + 0x00ef)
   053A F0            [24]  956 	movx	@dptr,a
   053B 90 10 F0      [24]  957 	mov	dptr,#(_m + 0x00f0)
   053E E4            [12]  958 	clr	a
   053F F0            [24]  959 	movx	@dptr,a
   0540 90 10 F1      [24]  960 	mov	dptr,#(_m + 0x00f1)
   0543 F0            [24]  961 	movx	@dptr,a
   0544 90 10 F2      [24]  962 	mov	dptr,#(_m + 0x00f2)
   0547 F0            [24]  963 	movx	@dptr,a
   0548 90 10 F3      [24]  964 	mov	dptr,#(_m + 0x00f3)
   054B F0            [24]  965 	movx	@dptr,a
   054C 90 10 F4      [24]  966 	mov	dptr,#(_m + 0x00f4)
   054F E4            [12]  967 	clr	a
   0550 F0            [24]  968 	movx	@dptr,a
   0551 90 10 F5      [24]  969 	mov	dptr,#(_m + 0x00f5)
   0554 F0            [24]  970 	movx	@dptr,a
   0555 90 10 F6      [24]  971 	mov	dptr,#(_m + 0x00f6)
   0558 F0            [24]  972 	movx	@dptr,a
   0559 90 10 F7      [24]  973 	mov	dptr,#(_m + 0x00f7)
   055C F0            [24]  974 	movx	@dptr,a
   055D 90 10 F8      [24]  975 	mov	dptr,#(_m + 0x00f8)
   0560 E4            [12]  976 	clr	a
   0561 F0            [24]  977 	movx	@dptr,a
   0562 90 10 F9      [24]  978 	mov	dptr,#(_m + 0x00f9)
   0565 F0            [24]  979 	movx	@dptr,a
   0566 90 10 FA      [24]  980 	mov	dptr,#(_m + 0x00fa)
   0569 F0            [24]  981 	movx	@dptr,a
   056A 90 10 FB      [24]  982 	mov	dptr,#(_m + 0x00fb)
   056D F0            [24]  983 	movx	@dptr,a
   056E 90 10 FC      [24]  984 	mov	dptr,#(_m + 0x00fc)
   0571 E4            [12]  985 	clr	a
   0572 F0            [24]  986 	movx	@dptr,a
   0573 90 10 FD      [24]  987 	mov	dptr,#(_m + 0x00fd)
   0576 F0            [24]  988 	movx	@dptr,a
   0577 90 10 FE      [24]  989 	mov	dptr,#(_m + 0x00fe)
   057A F0            [24]  990 	movx	@dptr,a
   057B 90 10 FF      [24]  991 	mov	dptr,#(_m + 0x00ff)
   057E F0            [24]  992 	movx	@dptr,a
                            993 ;	rsa_exponent.c:28: volatile __xdata __at (0x1100) unsigned char r2modm[] = { 0xC8, 0xF6, 0x32, 0x9D, 0xE1, 0x61, 0xBD, 0x2F, 0xDA, 0xA1, 0x1F, 0x69, 0xC7, 0x0B, 0x56, 0x7E, 0x26, 0x8B, 0x2D, 0xB8, 0xF3, 0x71, 0xBE, 0xDE, 0x22, 0x34, 0x38, 0x6B, 0x8B, 0xB5, 0x71, 0x69, 0x39, 0x08, 0x03, 0x05, 0x94, 0xB2, 0x91, 0x3F, 0x96, 0xC7, 0xB3, 0xE4, 0x48, 0x25, 0xF5, 0xF7, 0xB5, 0xD5, 0xD1, 0xF5, 0x1A, 0x06, 0x13, 0xE5, 0x9A, 0x81, 0xD6, 0xAD, 0x4C, 0xD4, 0x6D, 0x2C, 0x71, 0x1B, 0x4E, 0x5D, 0x4F, 0xE0, 0x7D, 0xEA, 0xE9, 0x63, 0x06, 0x34, 0x4C, 0xA6, 0xA9, 0xA9, 0x2A, 0x3F, 0x66, 0x1B, 0x51, 0x3B, 0x73, 0x44, 0x18, 0xFF, 0xFE, 0x30, 0x8B, 0xEF, 0x94, 0x4A, 0x7D, 0x3F, 0x92, 0x8F, 0x23, 0x3D, 0x22, 0xCF, 0x07, 0x1A, 0x85, 0xB7, 0x76, 0x5F, 0x03, 0xBA, 0x4B, 0x56, 0xA1, 0x42, 0x29, 0x21, 0x50, 0x98, 0xC9, 0xED, 0xD9, 0xEA, 0x25, 0x35, 0xAF, 0x24, 0x00, 0x00, 0x00, 0x00, 0x00, 0x00, 0x00, 0x00, 0x00, 0x00, 0x00, 0x00, 0x00, 0x00, 0x00, 0x00, 0x00, 0x00, 0x00, 0x00, 0x00, 0x00, 0x00, 0x00, 0x00, 0x00, 0x00, 0x00, 0x00, 0x00, 0x00, 0x00, 0x00, 0x00, 0x00, 0x00, 0x00, 0x00, 0x00, 0x00, 0x00, 0x00, 0x00, 0x00, 0x00, 0x00, 0x00, 0x00, 0x00, 0x00, 0x00, 0x00, 0x00, 0x00, 0x00, 0x00, 0x00, 0x00, 0x00, 0x00, 0x00, 0x00, 0x00, 0x00, 0x00, 0x00, 0x00, 0x00, 0x00, 0x00, 0x00, 0x00, 0x00, 0x00, 0x00, 0x00, 0x00, 0x00, 0x00, 0x00, 0x00, 0x00, 0x00, 0x00, 0x00, 0x00, 0x00, 0x00, 0x00, 0x00, 0x00, 0x00, 0x00, 0x00, 0x00, 0x00, 0x00, 0x00, 0x00, 0x00, 0x00, 0x00, 0x00, 0x00, 0x00, 0x00, 0x00, 0x00, 0x00, 0x00, 0x00, 0x00, 0x00, 0x00, 0x00, 0x00, 0x00, 0x00, 0x00, 0x00, 0x00, 0x00, 0x00, 0x00, 0x00, 0x00, 0x00, 0x00 }; 
   057F 90 11 00      [24]  994 	mov	dptr,#_r2modm
   0582 74 C8         [12]  995 	mov	a,#0xC8
   0584 F0            [24]  996 	movx	@dptr,a
   0585 90 11 01      [24]  997 	mov	dptr,#(_r2modm + 0x0001)
   0588 74 F6         [12]  998 	mov	a,#0xF6
   058A F0            [24]  999 	movx	@dptr,a
   058B 90 11 02      [24] 1000 	mov	dptr,#(_r2modm + 0x0002)
   058E 74 32         [12] 1001 	mov	a,#0x32
   0590 F0            [24] 1002 	movx	@dptr,a
   0591 90 11 03      [24] 1003 	mov	dptr,#(_r2modm + 0x0003)
   0594 74 9D         [12] 1004 	mov	a,#0x9D
   0596 F0            [24] 1005 	movx	@dptr,a
   0597 90 11 04      [24] 1006 	mov	dptr,#(_r2modm + 0x0004)
   059A 74 E1         [12] 1007 	mov	a,#0xE1
   059C F0            [24] 1008 	movx	@dptr,a
   059D 90 11 05      [24] 1009 	mov	dptr,#(_r2modm + 0x0005)
   05A0 74 61         [12] 1010 	mov	a,#0x61
   05A2 F0            [24] 1011 	movx	@dptr,a
   05A3 90 11 06      [24] 1012 	mov	dptr,#(_r2modm + 0x0006)
   05A6 74 BD         [12] 1013 	mov	a,#0xBD
   05A8 F0            [24] 1014 	movx	@dptr,a
   05A9 90 11 07      [24] 1015 	mov	dptr,#(_r2modm + 0x0007)
   05AC 74 2F         [12] 1016 	mov	a,#0x2F
   05AE F0            [24] 1017 	movx	@dptr,a
   05AF 90 11 08      [24] 1018 	mov	dptr,#(_r2modm + 0x0008)
   05B2 74 DA         [12] 1019 	mov	a,#0xDA
   05B4 F0            [24] 1020 	movx	@dptr,a
   05B5 90 11 09      [24] 1021 	mov	dptr,#(_r2modm + 0x0009)
   05B8 74 A1         [12] 1022 	mov	a,#0xA1
   05BA F0            [24] 1023 	movx	@dptr,a
   05BB 90 11 0A      [24] 1024 	mov	dptr,#(_r2modm + 0x000a)
   05BE 74 1F         [12] 1025 	mov	a,#0x1F
   05C0 F0            [24] 1026 	movx	@dptr,a
   05C1 90 11 0B      [24] 1027 	mov	dptr,#(_r2modm + 0x000b)
   05C4 74 69         [12] 1028 	mov	a,#0x69
   05C6 F0            [24] 1029 	movx	@dptr,a
   05C7 90 11 0C      [24] 1030 	mov	dptr,#(_r2modm + 0x000c)
   05CA 74 C7         [12] 1031 	mov	a,#0xC7
   05CC F0            [24] 1032 	movx	@dptr,a
   05CD 90 11 0D      [24] 1033 	mov	dptr,#(_r2modm + 0x000d)
   05D0 74 0B         [12] 1034 	mov	a,#0x0B
   05D2 F0            [24] 1035 	movx	@dptr,a
   05D3 90 11 0E      [24] 1036 	mov	dptr,#(_r2modm + 0x000e)
   05D6 74 56         [12] 1037 	mov	a,#0x56
   05D8 F0            [24] 1038 	movx	@dptr,a
   05D9 90 11 0F      [24] 1039 	mov	dptr,#(_r2modm + 0x000f)
   05DC 74 7E         [12] 1040 	mov	a,#0x7E
   05DE F0            [24] 1041 	movx	@dptr,a
   05DF 90 11 10      [24] 1042 	mov	dptr,#(_r2modm + 0x0010)
   05E2 74 26         [12] 1043 	mov	a,#0x26
   05E4 F0            [24] 1044 	movx	@dptr,a
   05E5 90 11 11      [24] 1045 	mov	dptr,#(_r2modm + 0x0011)
   05E8 74 8B         [12] 1046 	mov	a,#0x8B
   05EA F0            [24] 1047 	movx	@dptr,a
   05EB 90 11 12      [24] 1048 	mov	dptr,#(_r2modm + 0x0012)
   05EE 74 2D         [12] 1049 	mov	a,#0x2D
   05F0 F0            [24] 1050 	movx	@dptr,a
   05F1 90 11 13      [24] 1051 	mov	dptr,#(_r2modm + 0x0013)
   05F4 74 B8         [12] 1052 	mov	a,#0xB8
   05F6 F0            [24] 1053 	movx	@dptr,a
   05F7 90 11 14      [24] 1054 	mov	dptr,#(_r2modm + 0x0014)
   05FA 74 F3         [12] 1055 	mov	a,#0xF3
   05FC F0            [24] 1056 	movx	@dptr,a
   05FD 90 11 15      [24] 1057 	mov	dptr,#(_r2modm + 0x0015)
   0600 74 71         [12] 1058 	mov	a,#0x71
   0602 F0            [24] 1059 	movx	@dptr,a
   0603 90 11 16      [24] 1060 	mov	dptr,#(_r2modm + 0x0016)
   0606 74 BE         [12] 1061 	mov	a,#0xBE
   0608 F0            [24] 1062 	movx	@dptr,a
   0609 90 11 17      [24] 1063 	mov	dptr,#(_r2modm + 0x0017)
   060C 74 DE         [12] 1064 	mov	a,#0xDE
   060E F0            [24] 1065 	movx	@dptr,a
   060F 90 11 18      [24] 1066 	mov	dptr,#(_r2modm + 0x0018)
   0612 74 22         [12] 1067 	mov	a,#0x22
   0614 F0            [24] 1068 	movx	@dptr,a
   0615 90 11 19      [24] 1069 	mov	dptr,#(_r2modm + 0x0019)
   0618 74 34         [12] 1070 	mov	a,#0x34
   061A F0            [24] 1071 	movx	@dptr,a
   061B 90 11 1A      [24] 1072 	mov	dptr,#(_r2modm + 0x001a)
   061E 74 38         [12] 1073 	mov	a,#0x38
   0620 F0            [24] 1074 	movx	@dptr,a
   0621 90 11 1B      [24] 1075 	mov	dptr,#(_r2modm + 0x001b)
   0624 74 6B         [12] 1076 	mov	a,#0x6B
   0626 F0            [24] 1077 	movx	@dptr,a
   0627 90 11 1C      [24] 1078 	mov	dptr,#(_r2modm + 0x001c)
   062A 74 8B         [12] 1079 	mov	a,#0x8B
   062C F0            [24] 1080 	movx	@dptr,a
   062D 90 11 1D      [24] 1081 	mov	dptr,#(_r2modm + 0x001d)
   0630 74 B5         [12] 1082 	mov	a,#0xB5
   0632 F0            [24] 1083 	movx	@dptr,a
   0633 90 11 1E      [24] 1084 	mov	dptr,#(_r2modm + 0x001e)
   0636 74 71         [12] 1085 	mov	a,#0x71
   0638 F0            [24] 1086 	movx	@dptr,a
   0639 90 11 1F      [24] 1087 	mov	dptr,#(_r2modm + 0x001f)
   063C 74 69         [12] 1088 	mov	a,#0x69
   063E F0            [24] 1089 	movx	@dptr,a
   063F 90 11 20      [24] 1090 	mov	dptr,#(_r2modm + 0x0020)
   0642 74 39         [12] 1091 	mov	a,#0x39
   0644 F0            [24] 1092 	movx	@dptr,a
   0645 90 11 21      [24] 1093 	mov	dptr,#(_r2modm + 0x0021)
   0648 74 08         [12] 1094 	mov	a,#0x08
   064A F0            [24] 1095 	movx	@dptr,a
   064B 90 11 22      [24] 1096 	mov	dptr,#(_r2modm + 0x0022)
   064E 74 03         [12] 1097 	mov	a,#0x03
   0650 F0            [24] 1098 	movx	@dptr,a
   0651 90 11 23      [24] 1099 	mov	dptr,#(_r2modm + 0x0023)
   0654 74 05         [12] 1100 	mov	a,#0x05
   0656 F0            [24] 1101 	movx	@dptr,a
   0657 90 11 24      [24] 1102 	mov	dptr,#(_r2modm + 0x0024)
   065A 74 94         [12] 1103 	mov	a,#0x94
   065C F0            [24] 1104 	movx	@dptr,a
   065D 90 11 25      [24] 1105 	mov	dptr,#(_r2modm + 0x0025)
   0660 74 B2         [12] 1106 	mov	a,#0xB2
   0662 F0            [24] 1107 	movx	@dptr,a
   0663 90 11 26      [24] 1108 	mov	dptr,#(_r2modm + 0x0026)
   0666 74 91         [12] 1109 	mov	a,#0x91
   0668 F0            [24] 1110 	movx	@dptr,a
   0669 90 11 27      [24] 1111 	mov	dptr,#(_r2modm + 0x0027)
   066C 74 3F         [12] 1112 	mov	a,#0x3F
   066E F0            [24] 1113 	movx	@dptr,a
   066F 90 11 28      [24] 1114 	mov	dptr,#(_r2modm + 0x0028)
   0672 74 96         [12] 1115 	mov	a,#0x96
   0674 F0            [24] 1116 	movx	@dptr,a
   0675 90 11 29      [24] 1117 	mov	dptr,#(_r2modm + 0x0029)
   0678 74 C7         [12] 1118 	mov	a,#0xC7
   067A F0            [24] 1119 	movx	@dptr,a
   067B 90 11 2A      [24] 1120 	mov	dptr,#(_r2modm + 0x002a)
   067E 74 B3         [12] 1121 	mov	a,#0xB3
   0680 F0            [24] 1122 	movx	@dptr,a
   0681 90 11 2B      [24] 1123 	mov	dptr,#(_r2modm + 0x002b)
   0684 74 E4         [12] 1124 	mov	a,#0xE4
   0686 F0            [24] 1125 	movx	@dptr,a
   0687 90 11 2C      [24] 1126 	mov	dptr,#(_r2modm + 0x002c)
   068A 74 48         [12] 1127 	mov	a,#0x48
   068C F0            [24] 1128 	movx	@dptr,a
   068D 90 11 2D      [24] 1129 	mov	dptr,#(_r2modm + 0x002d)
   0690 74 25         [12] 1130 	mov	a,#0x25
   0692 F0            [24] 1131 	movx	@dptr,a
   0693 90 11 2E      [24] 1132 	mov	dptr,#(_r2modm + 0x002e)
   0696 74 F5         [12] 1133 	mov	a,#0xF5
   0698 F0            [24] 1134 	movx	@dptr,a
   0699 90 11 2F      [24] 1135 	mov	dptr,#(_r2modm + 0x002f)
   069C 74 F7         [12] 1136 	mov	a,#0xF7
   069E F0            [24] 1137 	movx	@dptr,a
   069F 90 11 30      [24] 1138 	mov	dptr,#(_r2modm + 0x0030)
   06A2 74 B5         [12] 1139 	mov	a,#0xB5
   06A4 F0            [24] 1140 	movx	@dptr,a
   06A5 90 11 31      [24] 1141 	mov	dptr,#(_r2modm + 0x0031)
   06A8 74 D5         [12] 1142 	mov	a,#0xD5
   06AA F0            [24] 1143 	movx	@dptr,a
   06AB 90 11 32      [24] 1144 	mov	dptr,#(_r2modm + 0x0032)
   06AE 74 D1         [12] 1145 	mov	a,#0xD1
   06B0 F0            [24] 1146 	movx	@dptr,a
   06B1 90 11 33      [24] 1147 	mov	dptr,#(_r2modm + 0x0033)
   06B4 74 F5         [12] 1148 	mov	a,#0xF5
   06B6 F0            [24] 1149 	movx	@dptr,a
   06B7 90 11 34      [24] 1150 	mov	dptr,#(_r2modm + 0x0034)
   06BA 74 1A         [12] 1151 	mov	a,#0x1A
   06BC F0            [24] 1152 	movx	@dptr,a
   06BD 90 11 35      [24] 1153 	mov	dptr,#(_r2modm + 0x0035)
   06C0 74 06         [12] 1154 	mov	a,#0x06
   06C2 F0            [24] 1155 	movx	@dptr,a
   06C3 90 11 36      [24] 1156 	mov	dptr,#(_r2modm + 0x0036)
   06C6 74 13         [12] 1157 	mov	a,#0x13
   06C8 F0            [24] 1158 	movx	@dptr,a
   06C9 90 11 37      [24] 1159 	mov	dptr,#(_r2modm + 0x0037)
   06CC 74 E5         [12] 1160 	mov	a,#0xE5
   06CE F0            [24] 1161 	movx	@dptr,a
   06CF 90 11 38      [24] 1162 	mov	dptr,#(_r2modm + 0x0038)
   06D2 74 9A         [12] 1163 	mov	a,#0x9A
   06D4 F0            [24] 1164 	movx	@dptr,a
   06D5 90 11 39      [24] 1165 	mov	dptr,#(_r2modm + 0x0039)
   06D8 74 81         [12] 1166 	mov	a,#0x81
   06DA F0            [24] 1167 	movx	@dptr,a
   06DB 90 11 3A      [24] 1168 	mov	dptr,#(_r2modm + 0x003a)
   06DE 74 D6         [12] 1169 	mov	a,#0xD6
   06E0 F0            [24] 1170 	movx	@dptr,a
   06E1 90 11 3B      [24] 1171 	mov	dptr,#(_r2modm + 0x003b)
   06E4 74 AD         [12] 1172 	mov	a,#0xAD
   06E6 F0            [24] 1173 	movx	@dptr,a
   06E7 90 11 3C      [24] 1174 	mov	dptr,#(_r2modm + 0x003c)
   06EA 74 4C         [12] 1175 	mov	a,#0x4C
   06EC F0            [24] 1176 	movx	@dptr,a
   06ED 90 11 3D      [24] 1177 	mov	dptr,#(_r2modm + 0x003d)
   06F0 74 D4         [12] 1178 	mov	a,#0xD4
   06F2 F0            [24] 1179 	movx	@dptr,a
   06F3 90 11 3E      [24] 1180 	mov	dptr,#(_r2modm + 0x003e)
   06F6 74 6D         [12] 1181 	mov	a,#0x6D
   06F8 F0            [24] 1182 	movx	@dptr,a
   06F9 90 11 3F      [24] 1183 	mov	dptr,#(_r2modm + 0x003f)
   06FC 74 2C         [12] 1184 	mov	a,#0x2C
   06FE F0            [24] 1185 	movx	@dptr,a
   06FF 90 11 40      [24] 1186 	mov	dptr,#(_r2modm + 0x0040)
   0702 74 71         [12] 1187 	mov	a,#0x71
   0704 F0            [24] 1188 	movx	@dptr,a
   0705 90 11 41      [24] 1189 	mov	dptr,#(_r2modm + 0x0041)
   0708 74 1B         [12] 1190 	mov	a,#0x1B
   070A F0            [24] 1191 	movx	@dptr,a
   070B 90 11 42      [24] 1192 	mov	dptr,#(_r2modm + 0x0042)
   070E 74 4E         [12] 1193 	mov	a,#0x4E
   0710 F0            [24] 1194 	movx	@dptr,a
   0711 90 11 43      [24] 1195 	mov	dptr,#(_r2modm + 0x0043)
   0714 74 5D         [12] 1196 	mov	a,#0x5D
   0716 F0            [24] 1197 	movx	@dptr,a
   0717 90 11 44      [24] 1198 	mov	dptr,#(_r2modm + 0x0044)
   071A 74 4F         [12] 1199 	mov	a,#0x4F
   071C F0            [24] 1200 	movx	@dptr,a
   071D 90 11 45      [24] 1201 	mov	dptr,#(_r2modm + 0x0045)
   0720 74 E0         [12] 1202 	mov	a,#0xE0
   0722 F0            [24] 1203 	movx	@dptr,a
   0723 90 11 46      [24] 1204 	mov	dptr,#(_r2modm + 0x0046)
   0726 74 7D         [12] 1205 	mov	a,#0x7D
   0728 F0            [24] 1206 	movx	@dptr,a
   0729 90 11 47      [24] 1207 	mov	dptr,#(_r2modm + 0x0047)
   072C 74 EA         [12] 1208 	mov	a,#0xEA
   072E F0            [24] 1209 	movx	@dptr,a
   072F 90 11 48      [24] 1210 	mov	dptr,#(_r2modm + 0x0048)
   0732 74 E9         [12] 1211 	mov	a,#0xE9
   0734 F0            [24] 1212 	movx	@dptr,a
   0735 90 11 49      [24] 1213 	mov	dptr,#(_r2modm + 0x0049)
   0738 74 63         [12] 1214 	mov	a,#0x63
   073A F0            [24] 1215 	movx	@dptr,a
   073B 90 11 4A      [24] 1216 	mov	dptr,#(_r2modm + 0x004a)
   073E 74 06         [12] 1217 	mov	a,#0x06
   0740 F0            [24] 1218 	movx	@dptr,a
   0741 90 11 4B      [24] 1219 	mov	dptr,#(_r2modm + 0x004b)
   0744 74 34         [12] 1220 	mov	a,#0x34
   0746 F0            [24] 1221 	movx	@dptr,a
   0747 90 11 4C      [24] 1222 	mov	dptr,#(_r2modm + 0x004c)
   074A 74 4C         [12] 1223 	mov	a,#0x4C
   074C F0            [24] 1224 	movx	@dptr,a
   074D 90 11 4D      [24] 1225 	mov	dptr,#(_r2modm + 0x004d)
   0750 74 A6         [12] 1226 	mov	a,#0xA6
   0752 F0            [24] 1227 	movx	@dptr,a
   0753 90 11 4E      [24] 1228 	mov	dptr,#(_r2modm + 0x004e)
   0756 74 A9         [12] 1229 	mov	a,#0xA9
   0758 F0            [24] 1230 	movx	@dptr,a
   0759 90 11 4F      [24] 1231 	mov	dptr,#(_r2modm + 0x004f)
   075C 74 A9         [12] 1232 	mov	a,#0xA9
   075E F0            [24] 1233 	movx	@dptr,a
   075F 90 11 50      [24] 1234 	mov	dptr,#(_r2modm + 0x0050)
   0762 74 2A         [12] 1235 	mov	a,#0x2A
   0764 F0            [24] 1236 	movx	@dptr,a
   0765 90 11 51      [24] 1237 	mov	dptr,#(_r2modm + 0x0051)
   0768 74 3F         [12] 1238 	mov	a,#0x3F
   076A F0            [24] 1239 	movx	@dptr,a
   076B 90 11 52      [24] 1240 	mov	dptr,#(_r2modm + 0x0052)
   076E 74 66         [12] 1241 	mov	a,#0x66
   0770 F0            [24] 1242 	movx	@dptr,a
   0771 90 11 53      [24] 1243 	mov	dptr,#(_r2modm + 0x0053)
   0774 74 1B         [12] 1244 	mov	a,#0x1B
   0776 F0            [24] 1245 	movx	@dptr,a
   0777 90 11 54      [24] 1246 	mov	dptr,#(_r2modm + 0x0054)
   077A 74 51         [12] 1247 	mov	a,#0x51
   077C F0            [24] 1248 	movx	@dptr,a
   077D 90 11 55      [24] 1249 	mov	dptr,#(_r2modm + 0x0055)
   0780 74 3B         [12] 1250 	mov	a,#0x3B
   0782 F0            [24] 1251 	movx	@dptr,a
   0783 90 11 56      [24] 1252 	mov	dptr,#(_r2modm + 0x0056)
   0786 74 73         [12] 1253 	mov	a,#0x73
   0788 F0            [24] 1254 	movx	@dptr,a
   0789 90 11 57      [24] 1255 	mov	dptr,#(_r2modm + 0x0057)
   078C 74 44         [12] 1256 	mov	a,#0x44
   078E F0            [24] 1257 	movx	@dptr,a
   078F 90 11 58      [24] 1258 	mov	dptr,#(_r2modm + 0x0058)
   0792 74 18         [12] 1259 	mov	a,#0x18
   0794 F0            [24] 1260 	movx	@dptr,a
   0795 90 11 59      [24] 1261 	mov	dptr,#(_r2modm + 0x0059)
   0798 74 FF         [12] 1262 	mov	a,#0xFF
   079A F0            [24] 1263 	movx	@dptr,a
   079B 90 11 5A      [24] 1264 	mov	dptr,#(_r2modm + 0x005a)
   079E 74 FE         [12] 1265 	mov	a,#0xFE
   07A0 F0            [24] 1266 	movx	@dptr,a
   07A1 90 11 5B      [24] 1267 	mov	dptr,#(_r2modm + 0x005b)
   07A4 74 30         [12] 1268 	mov	a,#0x30
   07A6 F0            [24] 1269 	movx	@dptr,a
   07A7 90 11 5C      [24] 1270 	mov	dptr,#(_r2modm + 0x005c)
   07AA 74 8B         [12] 1271 	mov	a,#0x8B
   07AC F0            [24] 1272 	movx	@dptr,a
   07AD 90 11 5D      [24] 1273 	mov	dptr,#(_r2modm + 0x005d)
   07B0 74 EF         [12] 1274 	mov	a,#0xEF
   07B2 F0            [24] 1275 	movx	@dptr,a
   07B3 90 11 5E      [24] 1276 	mov	dptr,#(_r2modm + 0x005e)
   07B6 74 94         [12] 1277 	mov	a,#0x94
   07B8 F0            [24] 1278 	movx	@dptr,a
   07B9 90 11 5F      [24] 1279 	mov	dptr,#(_r2modm + 0x005f)
   07BC 74 4A         [12] 1280 	mov	a,#0x4A
   07BE F0            [24] 1281 	movx	@dptr,a
   07BF 90 11 60      [24] 1282 	mov	dptr,#(_r2modm + 0x0060)
   07C2 74 7D         [12] 1283 	mov	a,#0x7D
   07C4 F0            [24] 1284 	movx	@dptr,a
   07C5 90 11 61      [24] 1285 	mov	dptr,#(_r2modm + 0x0061)
   07C8 74 3F         [12] 1286 	mov	a,#0x3F
   07CA F0            [24] 1287 	movx	@dptr,a
   07CB 90 11 62      [24] 1288 	mov	dptr,#(_r2modm + 0x0062)
   07CE 74 92         [12] 1289 	mov	a,#0x92
   07D0 F0            [24] 1290 	movx	@dptr,a
   07D1 90 11 63      [24] 1291 	mov	dptr,#(_r2modm + 0x0063)
   07D4 74 8F         [12] 1292 	mov	a,#0x8F
   07D6 F0            [24] 1293 	movx	@dptr,a
   07D7 90 11 64      [24] 1294 	mov	dptr,#(_r2modm + 0x0064)
   07DA 74 23         [12] 1295 	mov	a,#0x23
   07DC F0            [24] 1296 	movx	@dptr,a
   07DD 90 11 65      [24] 1297 	mov	dptr,#(_r2modm + 0x0065)
   07E0 74 3D         [12] 1298 	mov	a,#0x3D
   07E2 F0            [24] 1299 	movx	@dptr,a
   07E3 90 11 66      [24] 1300 	mov	dptr,#(_r2modm + 0x0066)
   07E6 74 22         [12] 1301 	mov	a,#0x22
   07E8 F0            [24] 1302 	movx	@dptr,a
   07E9 90 11 67      [24] 1303 	mov	dptr,#(_r2modm + 0x0067)
   07EC 74 CF         [12] 1304 	mov	a,#0xCF
   07EE F0            [24] 1305 	movx	@dptr,a
   07EF 90 11 68      [24] 1306 	mov	dptr,#(_r2modm + 0x0068)
   07F2 74 07         [12] 1307 	mov	a,#0x07
   07F4 F0            [24] 1308 	movx	@dptr,a
   07F5 90 11 69      [24] 1309 	mov	dptr,#(_r2modm + 0x0069)
   07F8 74 1A         [12] 1310 	mov	a,#0x1A
   07FA F0            [24] 1311 	movx	@dptr,a
   07FB 90 11 6A      [24] 1312 	mov	dptr,#(_r2modm + 0x006a)
   07FE 74 85         [12] 1313 	mov	a,#0x85
   0800 F0            [24] 1314 	movx	@dptr,a
   0801 90 11 6B      [24] 1315 	mov	dptr,#(_r2modm + 0x006b)
   0804 74 B7         [12] 1316 	mov	a,#0xB7
   0806 F0            [24] 1317 	movx	@dptr,a
   0807 90 11 6C      [24] 1318 	mov	dptr,#(_r2modm + 0x006c)
   080A 74 76         [12] 1319 	mov	a,#0x76
   080C F0            [24] 1320 	movx	@dptr,a
   080D 90 11 6D      [24] 1321 	mov	dptr,#(_r2modm + 0x006d)
   0810 74 5F         [12] 1322 	mov	a,#0x5F
   0812 F0            [24] 1323 	movx	@dptr,a
   0813 90 11 6E      [24] 1324 	mov	dptr,#(_r2modm + 0x006e)
   0816 74 03         [12] 1325 	mov	a,#0x03
   0818 F0            [24] 1326 	movx	@dptr,a
   0819 90 11 6F      [24] 1327 	mov	dptr,#(_r2modm + 0x006f)
   081C 74 BA         [12] 1328 	mov	a,#0xBA
   081E F0            [24] 1329 	movx	@dptr,a
   081F 90 11 70      [24] 1330 	mov	dptr,#(_r2modm + 0x0070)
   0822 74 4B         [12] 1331 	mov	a,#0x4B
   0824 F0            [24] 1332 	movx	@dptr,a
   0825 90 11 71      [24] 1333 	mov	dptr,#(_r2modm + 0x0071)
   0828 74 56         [12] 1334 	mov	a,#0x56
   082A F0            [24] 1335 	movx	@dptr,a
   082B 90 11 72      [24] 1336 	mov	dptr,#(_r2modm + 0x0072)
   082E 74 A1         [12] 1337 	mov	a,#0xA1
   0830 F0            [24] 1338 	movx	@dptr,a
   0831 90 11 73      [24] 1339 	mov	dptr,#(_r2modm + 0x0073)
   0834 74 42         [12] 1340 	mov	a,#0x42
   0836 F0            [24] 1341 	movx	@dptr,a
   0837 90 11 74      [24] 1342 	mov	dptr,#(_r2modm + 0x0074)
   083A 74 29         [12] 1343 	mov	a,#0x29
   083C F0            [24] 1344 	movx	@dptr,a
   083D 90 11 75      [24] 1345 	mov	dptr,#(_r2modm + 0x0075)
   0840 74 21         [12] 1346 	mov	a,#0x21
   0842 F0            [24] 1347 	movx	@dptr,a
   0843 90 11 76      [24] 1348 	mov	dptr,#(_r2modm + 0x0076)
   0846 74 50         [12] 1349 	mov	a,#0x50
   0848 F0            [24] 1350 	movx	@dptr,a
   0849 90 11 77      [24] 1351 	mov	dptr,#(_r2modm + 0x0077)
   084C 74 98         [12] 1352 	mov	a,#0x98
   084E F0            [24] 1353 	movx	@dptr,a
   084F 90 11 78      [24] 1354 	mov	dptr,#(_r2modm + 0x0078)
   0852 74 C9         [12] 1355 	mov	a,#0xC9
   0854 F0            [24] 1356 	movx	@dptr,a
   0855 90 11 79      [24] 1357 	mov	dptr,#(_r2modm + 0x0079)
   0858 74 ED         [12] 1358 	mov	a,#0xED
   085A F0            [24] 1359 	movx	@dptr,a
   085B 90 11 7A      [24] 1360 	mov	dptr,#(_r2modm + 0x007a)
   085E 74 D9         [12] 1361 	mov	a,#0xD9
   0860 F0            [24] 1362 	movx	@dptr,a
   0861 90 11 7B      [24] 1363 	mov	dptr,#(_r2modm + 0x007b)
   0864 74 EA         [12] 1364 	mov	a,#0xEA
   0866 F0            [24] 1365 	movx	@dptr,a
   0867 90 11 7C      [24] 1366 	mov	dptr,#(_r2modm + 0x007c)
   086A 74 25         [12] 1367 	mov	a,#0x25
   086C F0            [24] 1368 	movx	@dptr,a
   086D 90 11 7D      [24] 1369 	mov	dptr,#(_r2modm + 0x007d)
   0870 74 35         [12] 1370 	mov	a,#0x35
   0872 F0            [24] 1371 	movx	@dptr,a
   0873 90 11 7E      [24] 1372 	mov	dptr,#(_r2modm + 0x007e)
   0876 74 AF         [12] 1373 	mov	a,#0xAF
   0878 F0            [24] 1374 	movx	@dptr,a
   0879 90 11 7F      [24] 1375 	mov	dptr,#(_r2modm + 0x007f)
   087C 74 24         [12] 1376 	mov	a,#0x24
   087E F0            [24] 1377 	movx	@dptr,a
   087F 90 11 80      [24] 1378 	mov	dptr,#(_r2modm + 0x0080)
   0882 E4            [12] 1379 	clr	a
   0883 F0            [24] 1380 	movx	@dptr,a
   0884 90 11 81      [24] 1381 	mov	dptr,#(_r2modm + 0x0081)
   0887 F0            [24] 1382 	movx	@dptr,a
   0888 90 11 82      [24] 1383 	mov	dptr,#(_r2modm + 0x0082)
   088B F0            [24] 1384 	movx	@dptr,a
   088C 90 11 83      [24] 1385 	mov	dptr,#(_r2modm + 0x0083)
   088F F0            [24] 1386 	movx	@dptr,a
   0890 90 11 84      [24] 1387 	mov	dptr,#(_r2modm + 0x0084)
   0893 E4            [12] 1388 	clr	a
   0894 F0            [24] 1389 	movx	@dptr,a
   0895 90 11 85      [24] 1390 	mov	dptr,#(_r2modm + 0x0085)
   0898 F0            [24] 1391 	movx	@dptr,a
   0899 90 11 86      [24] 1392 	mov	dptr,#(_r2modm + 0x0086)
   089C F0            [24] 1393 	movx	@dptr,a
   089D 90 11 87      [24] 1394 	mov	dptr,#(_r2modm + 0x0087)
   08A0 F0            [24] 1395 	movx	@dptr,a
   08A1 90 11 88      [24] 1396 	mov	dptr,#(_r2modm + 0x0088)
   08A4 E4            [12] 1397 	clr	a
   08A5 F0            [24] 1398 	movx	@dptr,a
   08A6 90 11 89      [24] 1399 	mov	dptr,#(_r2modm + 0x0089)
   08A9 F0            [24] 1400 	movx	@dptr,a
   08AA 90 11 8A      [24] 1401 	mov	dptr,#(_r2modm + 0x008a)
   08AD F0            [24] 1402 	movx	@dptr,a
   08AE 90 11 8B      [24] 1403 	mov	dptr,#(_r2modm + 0x008b)
   08B1 F0            [24] 1404 	movx	@dptr,a
   08B2 90 11 8C      [24] 1405 	mov	dptr,#(_r2modm + 0x008c)
   08B5 E4            [12] 1406 	clr	a
   08B6 F0            [24] 1407 	movx	@dptr,a
   08B7 90 11 8D      [24] 1408 	mov	dptr,#(_r2modm + 0x008d)
   08BA F0            [24] 1409 	movx	@dptr,a
   08BB 90 11 8E      [24] 1410 	mov	dptr,#(_r2modm + 0x008e)
   08BE F0            [24] 1411 	movx	@dptr,a
   08BF 90 11 8F      [24] 1412 	mov	dptr,#(_r2modm + 0x008f)
   08C2 F0            [24] 1413 	movx	@dptr,a
   08C3 90 11 90      [24] 1414 	mov	dptr,#(_r2modm + 0x0090)
   08C6 E4            [12] 1415 	clr	a
   08C7 F0            [24] 1416 	movx	@dptr,a
   08C8 90 11 91      [24] 1417 	mov	dptr,#(_r2modm + 0x0091)
   08CB F0            [24] 1418 	movx	@dptr,a
   08CC 90 11 92      [24] 1419 	mov	dptr,#(_r2modm + 0x0092)
   08CF F0            [24] 1420 	movx	@dptr,a
   08D0 90 11 93      [24] 1421 	mov	dptr,#(_r2modm + 0x0093)
   08D3 F0            [24] 1422 	movx	@dptr,a
   08D4 90 11 94      [24] 1423 	mov	dptr,#(_r2modm + 0x0094)
   08D7 E4            [12] 1424 	clr	a
   08D8 F0            [24] 1425 	movx	@dptr,a
   08D9 90 11 95      [24] 1426 	mov	dptr,#(_r2modm + 0x0095)
   08DC F0            [24] 1427 	movx	@dptr,a
   08DD 90 11 96      [24] 1428 	mov	dptr,#(_r2modm + 0x0096)
   08E0 F0            [24] 1429 	movx	@dptr,a
   08E1 90 11 97      [24] 1430 	mov	dptr,#(_r2modm + 0x0097)
   08E4 F0            [24] 1431 	movx	@dptr,a
   08E5 90 11 98      [24] 1432 	mov	dptr,#(_r2modm + 0x0098)
   08E8 E4            [12] 1433 	clr	a
   08E9 F0            [24] 1434 	movx	@dptr,a
   08EA 90 11 99      [24] 1435 	mov	dptr,#(_r2modm + 0x0099)
   08ED F0            [24] 1436 	movx	@dptr,a
   08EE 90 11 9A      [24] 1437 	mov	dptr,#(_r2modm + 0x009a)
   08F1 F0            [24] 1438 	movx	@dptr,a
   08F2 90 11 9B      [24] 1439 	mov	dptr,#(_r2modm + 0x009b)
   08F5 F0            [24] 1440 	movx	@dptr,a
   08F6 90 11 9C      [24] 1441 	mov	dptr,#(_r2modm + 0x009c)
   08F9 E4            [12] 1442 	clr	a
   08FA F0            [24] 1443 	movx	@dptr,a
   08FB 90 11 9D      [24] 1444 	mov	dptr,#(_r2modm + 0x009d)
   08FE F0            [24] 1445 	movx	@dptr,a
   08FF 90 11 9E      [24] 1446 	mov	dptr,#(_r2modm + 0x009e)
   0902 F0            [24] 1447 	movx	@dptr,a
   0903 90 11 9F      [24] 1448 	mov	dptr,#(_r2modm + 0x009f)
   0906 F0            [24] 1449 	movx	@dptr,a
   0907 90 11 A0      [24] 1450 	mov	dptr,#(_r2modm + 0x00a0)
   090A E4            [12] 1451 	clr	a
   090B F0            [24] 1452 	movx	@dptr,a
   090C 90 11 A1      [24] 1453 	mov	dptr,#(_r2modm + 0x00a1)
   090F F0            [24] 1454 	movx	@dptr,a
   0910 90 11 A2      [24] 1455 	mov	dptr,#(_r2modm + 0x00a2)
   0913 F0            [24] 1456 	movx	@dptr,a
   0914 90 11 A3      [24] 1457 	mov	dptr,#(_r2modm + 0x00a3)
   0917 F0            [24] 1458 	movx	@dptr,a
   0918 90 11 A4      [24] 1459 	mov	dptr,#(_r2modm + 0x00a4)
   091B E4            [12] 1460 	clr	a
   091C F0            [24] 1461 	movx	@dptr,a
   091D 90 11 A5      [24] 1462 	mov	dptr,#(_r2modm + 0x00a5)
   0920 F0            [24] 1463 	movx	@dptr,a
   0921 90 11 A6      [24] 1464 	mov	dptr,#(_r2modm + 0x00a6)
   0924 F0            [24] 1465 	movx	@dptr,a
   0925 90 11 A7      [24] 1466 	mov	dptr,#(_r2modm + 0x00a7)
   0928 F0            [24] 1467 	movx	@dptr,a
   0929 90 11 A8      [24] 1468 	mov	dptr,#(_r2modm + 0x00a8)
   092C E4            [12] 1469 	clr	a
   092D F0            [24] 1470 	movx	@dptr,a
   092E 90 11 A9      [24] 1471 	mov	dptr,#(_r2modm + 0x00a9)
   0931 F0            [24] 1472 	movx	@dptr,a
   0932 90 11 AA      [24] 1473 	mov	dptr,#(_r2modm + 0x00aa)
   0935 F0            [24] 1474 	movx	@dptr,a
   0936 90 11 AB      [24] 1475 	mov	dptr,#(_r2modm + 0x00ab)
   0939 F0            [24] 1476 	movx	@dptr,a
   093A 90 11 AC      [24] 1477 	mov	dptr,#(_r2modm + 0x00ac)
   093D E4            [12] 1478 	clr	a
   093E F0            [24] 1479 	movx	@dptr,a
   093F 90 11 AD      [24] 1480 	mov	dptr,#(_r2modm + 0x00ad)
   0942 F0            [24] 1481 	movx	@dptr,a
   0943 90 11 AE      [24] 1482 	mov	dptr,#(_r2modm + 0x00ae)
   0946 F0            [24] 1483 	movx	@dptr,a
   0947 90 11 AF      [24] 1484 	mov	dptr,#(_r2modm + 0x00af)
   094A F0            [24] 1485 	movx	@dptr,a
   094B 90 11 B0      [24] 1486 	mov	dptr,#(_r2modm + 0x00b0)
   094E E4            [12] 1487 	clr	a
   094F F0            [24] 1488 	movx	@dptr,a
   0950 90 11 B1      [24] 1489 	mov	dptr,#(_r2modm + 0x00b1)
   0953 F0            [24] 1490 	movx	@dptr,a
   0954 90 11 B2      [24] 1491 	mov	dptr,#(_r2modm + 0x00b2)
   0957 F0            [24] 1492 	movx	@dptr,a
   0958 90 11 B3      [24] 1493 	mov	dptr,#(_r2modm + 0x00b3)
   095B F0            [24] 1494 	movx	@dptr,a
   095C 90 11 B4      [24] 1495 	mov	dptr,#(_r2modm + 0x00b4)
   095F E4            [12] 1496 	clr	a
   0960 F0            [24] 1497 	movx	@dptr,a
   0961 90 11 B5      [24] 1498 	mov	dptr,#(_r2modm + 0x00b5)
   0964 F0            [24] 1499 	movx	@dptr,a
   0965 90 11 B6      [24] 1500 	mov	dptr,#(_r2modm + 0x00b6)
   0968 F0            [24] 1501 	movx	@dptr,a
   0969 90 11 B7      [24] 1502 	mov	dptr,#(_r2modm + 0x00b7)
   096C F0            [24] 1503 	movx	@dptr,a
   096D 90 11 B8      [24] 1504 	mov	dptr,#(_r2modm + 0x00b8)
   0970 E4            [12] 1505 	clr	a
   0971 F0            [24] 1506 	movx	@dptr,a
   0972 90 11 B9      [24] 1507 	mov	dptr,#(_r2modm + 0x00b9)
   0975 F0            [24] 1508 	movx	@dptr,a
   0976 90 11 BA      [24] 1509 	mov	dptr,#(_r2modm + 0x00ba)
   0979 F0            [24] 1510 	movx	@dptr,a
   097A 90 11 BB      [24] 1511 	mov	dptr,#(_r2modm + 0x00bb)
   097D F0            [24] 1512 	movx	@dptr,a
   097E 90 11 BC      [24] 1513 	mov	dptr,#(_r2modm + 0x00bc)
   0981 E4            [12] 1514 	clr	a
   0982 F0            [24] 1515 	movx	@dptr,a
   0983 90 11 BD      [24] 1516 	mov	dptr,#(_r2modm + 0x00bd)
   0986 F0            [24] 1517 	movx	@dptr,a
   0987 90 11 BE      [24] 1518 	mov	dptr,#(_r2modm + 0x00be)
   098A F0            [24] 1519 	movx	@dptr,a
   098B 90 11 BF      [24] 1520 	mov	dptr,#(_r2modm + 0x00bf)
   098E F0            [24] 1521 	movx	@dptr,a
   098F 90 11 C0      [24] 1522 	mov	dptr,#(_r2modm + 0x00c0)
   0992 E4            [12] 1523 	clr	a
   0993 F0            [24] 1524 	movx	@dptr,a
   0994 90 11 C1      [24] 1525 	mov	dptr,#(_r2modm + 0x00c1)
   0997 F0            [24] 1526 	movx	@dptr,a
   0998 90 11 C2      [24] 1527 	mov	dptr,#(_r2modm + 0x00c2)
   099B F0            [24] 1528 	movx	@dptr,a
   099C 90 11 C3      [24] 1529 	mov	dptr,#(_r2modm + 0x00c3)
   099F F0            [24] 1530 	movx	@dptr,a
   09A0 90 11 C4      [24] 1531 	mov	dptr,#(_r2modm + 0x00c4)
   09A3 E4            [12] 1532 	clr	a
   09A4 F0            [24] 1533 	movx	@dptr,a
   09A5 90 11 C5      [24] 1534 	mov	dptr,#(_r2modm + 0x00c5)
   09A8 F0            [24] 1535 	movx	@dptr,a
   09A9 90 11 C6      [24] 1536 	mov	dptr,#(_r2modm + 0x00c6)
   09AC F0            [24] 1537 	movx	@dptr,a
   09AD 90 11 C7      [24] 1538 	mov	dptr,#(_r2modm + 0x00c7)
   09B0 F0            [24] 1539 	movx	@dptr,a
   09B1 90 11 C8      [24] 1540 	mov	dptr,#(_r2modm + 0x00c8)
   09B4 E4            [12] 1541 	clr	a
   09B5 F0            [24] 1542 	movx	@dptr,a
   09B6 90 11 C9      [24] 1543 	mov	dptr,#(_r2modm + 0x00c9)
   09B9 F0            [24] 1544 	movx	@dptr,a
   09BA 90 11 CA      [24] 1545 	mov	dptr,#(_r2modm + 0x00ca)
   09BD F0            [24] 1546 	movx	@dptr,a
   09BE 90 11 CB      [24] 1547 	mov	dptr,#(_r2modm + 0x00cb)
   09C1 F0            [24] 1548 	movx	@dptr,a
   09C2 90 11 CC      [24] 1549 	mov	dptr,#(_r2modm + 0x00cc)
   09C5 E4            [12] 1550 	clr	a
   09C6 F0            [24] 1551 	movx	@dptr,a
   09C7 90 11 CD      [24] 1552 	mov	dptr,#(_r2modm + 0x00cd)
   09CA F0            [24] 1553 	movx	@dptr,a
   09CB 90 11 CE      [24] 1554 	mov	dptr,#(_r2modm + 0x00ce)
   09CE F0            [24] 1555 	movx	@dptr,a
   09CF 90 11 CF      [24] 1556 	mov	dptr,#(_r2modm + 0x00cf)
   09D2 F0            [24] 1557 	movx	@dptr,a
   09D3 90 11 D0      [24] 1558 	mov	dptr,#(_r2modm + 0x00d0)
   09D6 E4            [12] 1559 	clr	a
   09D7 F0            [24] 1560 	movx	@dptr,a
   09D8 90 11 D1      [24] 1561 	mov	dptr,#(_r2modm + 0x00d1)
   09DB F0            [24] 1562 	movx	@dptr,a
   09DC 90 11 D2      [24] 1563 	mov	dptr,#(_r2modm + 0x00d2)
   09DF F0            [24] 1564 	movx	@dptr,a
   09E0 90 11 D3      [24] 1565 	mov	dptr,#(_r2modm + 0x00d3)
   09E3 F0            [24] 1566 	movx	@dptr,a
   09E4 90 11 D4      [24] 1567 	mov	dptr,#(_r2modm + 0x00d4)
   09E7 E4            [12] 1568 	clr	a
   09E8 F0            [24] 1569 	movx	@dptr,a
   09E9 90 11 D5      [24] 1570 	mov	dptr,#(_r2modm + 0x00d5)
   09EC F0            [24] 1571 	movx	@dptr,a
   09ED 90 11 D6      [24] 1572 	mov	dptr,#(_r2modm + 0x00d6)
   09F0 F0            [24] 1573 	movx	@dptr,a
   09F1 90 11 D7      [24] 1574 	mov	dptr,#(_r2modm + 0x00d7)
   09F4 F0            [24] 1575 	movx	@dptr,a
   09F5 90 11 D8      [24] 1576 	mov	dptr,#(_r2modm + 0x00d8)
   09F8 E4            [12] 1577 	clr	a
   09F9 F0            [24] 1578 	movx	@dptr,a
   09FA 90 11 D9      [24] 1579 	mov	dptr,#(_r2modm + 0x00d9)
   09FD F0            [24] 1580 	movx	@dptr,a
   09FE 90 11 DA      [24] 1581 	mov	dptr,#(_r2modm + 0x00da)
   0A01 F0            [24] 1582 	movx	@dptr,a
   0A02 90 11 DB      [24] 1583 	mov	dptr,#(_r2modm + 0x00db)
   0A05 F0            [24] 1584 	movx	@dptr,a
   0A06 90 11 DC      [24] 1585 	mov	dptr,#(_r2modm + 0x00dc)
   0A09 E4            [12] 1586 	clr	a
   0A0A F0            [24] 1587 	movx	@dptr,a
   0A0B 90 11 DD      [24] 1588 	mov	dptr,#(_r2modm + 0x00dd)
   0A0E F0            [24] 1589 	movx	@dptr,a
   0A0F 90 11 DE      [24] 1590 	mov	dptr,#(_r2modm + 0x00de)
   0A12 F0            [24] 1591 	movx	@dptr,a
   0A13 90 11 DF      [24] 1592 	mov	dptr,#(_r2modm + 0x00df)
   0A16 F0            [24] 1593 	movx	@dptr,a
   0A17 90 11 E0      [24] 1594 	mov	dptr,#(_r2modm + 0x00e0)
   0A1A E4            [12] 1595 	clr	a
   0A1B F0            [24] 1596 	movx	@dptr,a
   0A1C 90 11 E1      [24] 1597 	mov	dptr,#(_r2modm + 0x00e1)
   0A1F F0            [24] 1598 	movx	@dptr,a
   0A20 90 11 E2      [24] 1599 	mov	dptr,#(_r2modm + 0x00e2)
   0A23 F0            [24] 1600 	movx	@dptr,a
   0A24 90 11 E3      [24] 1601 	mov	dptr,#(_r2modm + 0x00e3)
   0A27 F0            [24] 1602 	movx	@dptr,a
   0A28 90 11 E4      [24] 1603 	mov	dptr,#(_r2modm + 0x00e4)
   0A2B E4            [12] 1604 	clr	a
   0A2C F0            [24] 1605 	movx	@dptr,a
   0A2D 90 11 E5      [24] 1606 	mov	dptr,#(_r2modm + 0x00e5)
   0A30 F0            [24] 1607 	movx	@dptr,a
   0A31 90 11 E6      [24] 1608 	mov	dptr,#(_r2modm + 0x00e6)
   0A34 F0            [24] 1609 	movx	@dptr,a
   0A35 90 11 E7      [24] 1610 	mov	dptr,#(_r2modm + 0x00e7)
   0A38 F0            [24] 1611 	movx	@dptr,a
   0A39 90 11 E8      [24] 1612 	mov	dptr,#(_r2modm + 0x00e8)
   0A3C E4            [12] 1613 	clr	a
   0A3D F0            [24] 1614 	movx	@dptr,a
   0A3E 90 11 E9      [24] 1615 	mov	dptr,#(_r2modm + 0x00e9)
   0A41 F0            [24] 1616 	movx	@dptr,a
   0A42 90 11 EA      [24] 1617 	mov	dptr,#(_r2modm + 0x00ea)
   0A45 F0            [24] 1618 	movx	@dptr,a
   0A46 90 11 EB      [24] 1619 	mov	dptr,#(_r2modm + 0x00eb)
   0A49 F0            [24] 1620 	movx	@dptr,a
   0A4A 90 11 EC      [24] 1621 	mov	dptr,#(_r2modm + 0x00ec)
   0A4D E4            [12] 1622 	clr	a
   0A4E F0            [24] 1623 	movx	@dptr,a
   0A4F 90 11 ED      [24] 1624 	mov	dptr,#(_r2modm + 0x00ed)
   0A52 F0            [24] 1625 	movx	@dptr,a
   0A53 90 11 EE      [24] 1626 	mov	dptr,#(_r2modm + 0x00ee)
   0A56 F0            [24] 1627 	movx	@dptr,a
   0A57 90 11 EF      [24] 1628 	mov	dptr,#(_r2modm + 0x00ef)
   0A5A F0            [24] 1629 	movx	@dptr,a
   0A5B 90 11 F0      [24] 1630 	mov	dptr,#(_r2modm + 0x00f0)
   0A5E E4            [12] 1631 	clr	a
   0A5F F0            [24] 1632 	movx	@dptr,a
   0A60 90 11 F1      [24] 1633 	mov	dptr,#(_r2modm + 0x00f1)
   0A63 F0            [24] 1634 	movx	@dptr,a
   0A64 90 11 F2      [24] 1635 	mov	dptr,#(_r2modm + 0x00f2)
   0A67 F0            [24] 1636 	movx	@dptr,a
   0A68 90 11 F3      [24] 1637 	mov	dptr,#(_r2modm + 0x00f3)
   0A6B F0            [24] 1638 	movx	@dptr,a
   0A6C 90 11 F4      [24] 1639 	mov	dptr,#(_r2modm + 0x00f4)
   0A6F E4            [12] 1640 	clr	a
   0A70 F0            [24] 1641 	movx	@dptr,a
   0A71 90 11 F5      [24] 1642 	mov	dptr,#(_r2modm + 0x00f5)
   0A74 F0            [24] 1643 	movx	@dptr,a
   0A75 90 11 F6      [24] 1644 	mov	dptr,#(_r2modm + 0x00f6)
   0A78 F0            [24] 1645 	movx	@dptr,a
   0A79 90 11 F7      [24] 1646 	mov	dptr,#(_r2modm + 0x00f7)
   0A7C F0            [24] 1647 	movx	@dptr,a
   0A7D 90 11 F8      [24] 1648 	mov	dptr,#(_r2modm + 0x00f8)
   0A80 E4            [12] 1649 	clr	a
   0A81 F0            [24] 1650 	movx	@dptr,a
   0A82 90 11 F9      [24] 1651 	mov	dptr,#(_r2modm + 0x00f9)
   0A85 F0            [24] 1652 	movx	@dptr,a
   0A86 90 11 FA      [24] 1653 	mov	dptr,#(_r2modm + 0x00fa)
   0A89 F0            [24] 1654 	movx	@dptr,a
   0A8A 90 11 FB      [24] 1655 	mov	dptr,#(_r2modm + 0x00fb)
   0A8D F0            [24] 1656 	movx	@dptr,a
   0A8E 90 11 FC      [24] 1657 	mov	dptr,#(_r2modm + 0x00fc)
   0A91 E4            [12] 1658 	clr	a
   0A92 F0            [24] 1659 	movx	@dptr,a
   0A93 90 11 FD      [24] 1660 	mov	dptr,#(_r2modm + 0x00fd)
   0A96 F0            [24] 1661 	movx	@dptr,a
   0A97 90 11 FE      [24] 1662 	mov	dptr,#(_r2modm + 0x00fe)
   0A9A F0            [24] 1663 	movx	@dptr,a
   0A9B 90 11 FF      [24] 1664 	mov	dptr,#(_r2modm + 0x00ff)
   0A9E F0            [24] 1665 	movx	@dptr,a
                           1666 ;	rsa_exponent.c:37: volatile __xdata __at (0x1200) unsigned char x[] = { 0x50, 0x24, 0x6E, 0x0E, 0x44, 0xDD, 0xE3, 0x57, 0xEB, 0xB9, 0xEF, 0xCE, 0xB4, 0x10, 0x8D, 0xBF, 0xC8, 0xEA, 0xC3, 0x00, 0x0E, 0xCF, 0x52, 0x2D, 0x25, 0x9D, 0x87, 0xA6, 0x1D, 0x4A, 0xB5, 0x4D, 0x67, 0xBC, 0x85, 0xBA, 0x70, 0x43, 0xC2, 0x81, 0xBD, 0x2F, 0x64, 0x53, 0xED, 0x32, 0x3C, 0x2D, 0x31, 0x23, 0xCF, 0xD8, 0x0F, 0xE9, 0x13, 0x51, 0x2D, 0xF8, 0xAC, 0x36, 0xA6, 0x5D, 0x8F, 0x70, 0x22, 0x60, 0x82, 0x88, 0x8C, 0xE3, 0x43, 0x4A, 0x9F, 0x87, 0x05, 0xED, 0xC9, 0x13, 0x0A, 0xBE, 0xCF, 0x6F, 0x07, 0x41, 0x89, 0x7A, 0xE8, 0xBD, 0xF1, 0xDD, 0x33, 0x70, 0x80, 0xD0, 0x10, 0xA3, 0xD2, 0x25, 0xB3, 0xCC, 0x4C, 0x62, 0x19, 0xBC, 0x7A, 0x92, 0x8B, 0x46, 0xBC, 0x7A, 0xF4, 0xA7, 0xC6, 0xF7, 0x1A, 0x76, 0xEE, 0x6E, 0xAC, 0x03, 0x4D, 0xAA, 0x3F, 0xC9, 0x3E, 0xE5, 0x92, 0xC8, 0x00, 0x00, 0x00, 0x00, 0x00, 0x00, 0x00, 0x00, 0x00, 0x00, 0x00, 0x00, 0x00, 0x00, 0x00, 0x00, 0x00, 0x00, 0x00, 0x00, 0x00, 0x00, 0x00, 0x00, 0x00, 0x00, 0x00, 0x00, 0x00, 0x00, 0x00, 0x00, 0x00, 0x00, 0x00, 0x00, 0x00, 0x00, 0x00, 0x00, 0x00, 0x00, 0x00, 0x00, 0x00, 0x00, 0x00, 0x00, 0x00, 0x00, 0x00, 0x00, 0x00, 0x00, 0x00, 0x00, 0x00, 0x00, 0x00, 0x00, 0x00, 0x00, 0x00, 0x00, 0x00, 0x00, 0x00, 0x00, 0x00, 0x00, 0x00, 0x00, 0x00, 0x00, 0x00, 0x00, 0x00, 0x00, 0x00, 0x00, 0x00, 0x00, 0x00, 0x00, 0x00, 0x00, 0x00, 0x00, 0x00, 0x00, 0x00, 0x00, 0x00, 0x00, 0x00, 0x00, 0x00, 0x00, 0x00, 0x00, 0x00, 0x00, 0x00, 0x00, 0x00, 0x00, 0x00, 0x00, 0x00, 0x00, 0x00, 0x00, 0x00, 0x00, 0x00, 0x00, 0x00, 0x00, 0x00, 0x00, 0x00, 0x00, 0x00, 0x00, 0x00, 0x00, 0x00, 0x00 };
   0A9F 90 12 00      [24] 1667 	mov	dptr,#_x
   0AA2 74 50         [12] 1668 	mov	a,#0x50
   0AA4 F0            [24] 1669 	movx	@dptr,a
   0AA5 90 12 01      [24] 1670 	mov	dptr,#(_x + 0x0001)
   0AA8 74 24         [12] 1671 	mov	a,#0x24
   0AAA F0            [24] 1672 	movx	@dptr,a
   0AAB 90 12 02      [24] 1673 	mov	dptr,#(_x + 0x0002)
   0AAE 74 6E         [12] 1674 	mov	a,#0x6E
   0AB0 F0            [24] 1675 	movx	@dptr,a
   0AB1 90 12 03      [24] 1676 	mov	dptr,#(_x + 0x0003)
   0AB4 74 0E         [12] 1677 	mov	a,#0x0E
   0AB6 F0            [24] 1678 	movx	@dptr,a
   0AB7 90 12 04      [24] 1679 	mov	dptr,#(_x + 0x0004)
   0ABA 74 44         [12] 1680 	mov	a,#0x44
   0ABC F0            [24] 1681 	movx	@dptr,a
   0ABD 90 12 05      [24] 1682 	mov	dptr,#(_x + 0x0005)
   0AC0 74 DD         [12] 1683 	mov	a,#0xDD
   0AC2 F0            [24] 1684 	movx	@dptr,a
   0AC3 90 12 06      [24] 1685 	mov	dptr,#(_x + 0x0006)
   0AC6 74 E3         [12] 1686 	mov	a,#0xE3
   0AC8 F0            [24] 1687 	movx	@dptr,a
   0AC9 90 12 07      [24] 1688 	mov	dptr,#(_x + 0x0007)
   0ACC 74 57         [12] 1689 	mov	a,#0x57
   0ACE F0            [24] 1690 	movx	@dptr,a
   0ACF 90 12 08      [24] 1691 	mov	dptr,#(_x + 0x0008)
   0AD2 74 EB         [12] 1692 	mov	a,#0xEB
   0AD4 F0            [24] 1693 	movx	@dptr,a
   0AD5 90 12 09      [24] 1694 	mov	dptr,#(_x + 0x0009)
   0AD8 74 B9         [12] 1695 	mov	a,#0xB9
   0ADA F0            [24] 1696 	movx	@dptr,a
   0ADB 90 12 0A      [24] 1697 	mov	dptr,#(_x + 0x000a)
   0ADE 74 EF         [12] 1698 	mov	a,#0xEF
   0AE0 F0            [24] 1699 	movx	@dptr,a
   0AE1 90 12 0B      [24] 1700 	mov	dptr,#(_x + 0x000b)
   0AE4 74 CE         [12] 1701 	mov	a,#0xCE
   0AE6 F0            [24] 1702 	movx	@dptr,a
   0AE7 90 12 0C      [24] 1703 	mov	dptr,#(_x + 0x000c)
   0AEA 74 B4         [12] 1704 	mov	a,#0xB4
   0AEC F0            [24] 1705 	movx	@dptr,a
   0AED 90 12 0D      [24] 1706 	mov	dptr,#(_x + 0x000d)
   0AF0 74 10         [12] 1707 	mov	a,#0x10
   0AF2 F0            [24] 1708 	movx	@dptr,a
   0AF3 90 12 0E      [24] 1709 	mov	dptr,#(_x + 0x000e)
   0AF6 74 8D         [12] 1710 	mov	a,#0x8D
   0AF8 F0            [24] 1711 	movx	@dptr,a
   0AF9 90 12 0F      [24] 1712 	mov	dptr,#(_x + 0x000f)
   0AFC 74 BF         [12] 1713 	mov	a,#0xBF
   0AFE F0            [24] 1714 	movx	@dptr,a
   0AFF 90 12 10      [24] 1715 	mov	dptr,#(_x + 0x0010)
   0B02 74 C8         [12] 1716 	mov	a,#0xC8
   0B04 F0            [24] 1717 	movx	@dptr,a
   0B05 90 12 11      [24] 1718 	mov	dptr,#(_x + 0x0011)
   0B08 74 EA         [12] 1719 	mov	a,#0xEA
   0B0A F0            [24] 1720 	movx	@dptr,a
   0B0B 90 12 12      [24] 1721 	mov	dptr,#(_x + 0x0012)
   0B0E 74 C3         [12] 1722 	mov	a,#0xC3
   0B10 F0            [24] 1723 	movx	@dptr,a
   0B11 90 12 13      [24] 1724 	mov	dptr,#(_x + 0x0013)
   0B14 E4            [12] 1725 	clr	a
   0B15 F0            [24] 1726 	movx	@dptr,a
   0B16 90 12 14      [24] 1727 	mov	dptr,#(_x + 0x0014)
   0B19 74 0E         [12] 1728 	mov	a,#0x0E
   0B1B F0            [24] 1729 	movx	@dptr,a
   0B1C 90 12 15      [24] 1730 	mov	dptr,#(_x + 0x0015)
   0B1F 74 CF         [12] 1731 	mov	a,#0xCF
   0B21 F0            [24] 1732 	movx	@dptr,a
   0B22 90 12 16      [24] 1733 	mov	dptr,#(_x + 0x0016)
   0B25 74 52         [12] 1734 	mov	a,#0x52
   0B27 F0            [24] 1735 	movx	@dptr,a
   0B28 90 12 17      [24] 1736 	mov	dptr,#(_x + 0x0017)
   0B2B 74 2D         [12] 1737 	mov	a,#0x2D
   0B2D F0            [24] 1738 	movx	@dptr,a
   0B2E 90 12 18      [24] 1739 	mov	dptr,#(_x + 0x0018)
   0B31 74 25         [12] 1740 	mov	a,#0x25
   0B33 F0            [24] 1741 	movx	@dptr,a
   0B34 90 12 19      [24] 1742 	mov	dptr,#(_x + 0x0019)
   0B37 74 9D         [12] 1743 	mov	a,#0x9D
   0B39 F0            [24] 1744 	movx	@dptr,a
   0B3A 90 12 1A      [24] 1745 	mov	dptr,#(_x + 0x001a)
   0B3D 74 87         [12] 1746 	mov	a,#0x87
   0B3F F0            [24] 1747 	movx	@dptr,a
   0B40 90 12 1B      [24] 1748 	mov	dptr,#(_x + 0x001b)
   0B43 74 A6         [12] 1749 	mov	a,#0xA6
   0B45 F0            [24] 1750 	movx	@dptr,a
   0B46 90 12 1C      [24] 1751 	mov	dptr,#(_x + 0x001c)
   0B49 74 1D         [12] 1752 	mov	a,#0x1D
   0B4B F0            [24] 1753 	movx	@dptr,a
   0B4C 90 12 1D      [24] 1754 	mov	dptr,#(_x + 0x001d)
   0B4F 74 4A         [12] 1755 	mov	a,#0x4A
   0B51 F0            [24] 1756 	movx	@dptr,a
   0B52 90 12 1E      [24] 1757 	mov	dptr,#(_x + 0x001e)
   0B55 74 B5         [12] 1758 	mov	a,#0xB5
   0B57 F0            [24] 1759 	movx	@dptr,a
   0B58 90 12 1F      [24] 1760 	mov	dptr,#(_x + 0x001f)
   0B5B 74 4D         [12] 1761 	mov	a,#0x4D
   0B5D F0            [24] 1762 	movx	@dptr,a
   0B5E 90 12 20      [24] 1763 	mov	dptr,#(_x + 0x0020)
   0B61 74 67         [12] 1764 	mov	a,#0x67
   0B63 F0            [24] 1765 	movx	@dptr,a
   0B64 90 12 21      [24] 1766 	mov	dptr,#(_x + 0x0021)
   0B67 74 BC         [12] 1767 	mov	a,#0xBC
   0B69 F0            [24] 1768 	movx	@dptr,a
   0B6A 90 12 22      [24] 1769 	mov	dptr,#(_x + 0x0022)
   0B6D 74 85         [12] 1770 	mov	a,#0x85
   0B6F F0            [24] 1771 	movx	@dptr,a
   0B70 90 12 23      [24] 1772 	mov	dptr,#(_x + 0x0023)
   0B73 74 BA         [12] 1773 	mov	a,#0xBA
   0B75 F0            [24] 1774 	movx	@dptr,a
   0B76 90 12 24      [24] 1775 	mov	dptr,#(_x + 0x0024)
   0B79 74 70         [12] 1776 	mov	a,#0x70
   0B7B F0            [24] 1777 	movx	@dptr,a
   0B7C 90 12 25      [24] 1778 	mov	dptr,#(_x + 0x0025)
   0B7F 74 43         [12] 1779 	mov	a,#0x43
   0B81 F0            [24] 1780 	movx	@dptr,a
   0B82 90 12 26      [24] 1781 	mov	dptr,#(_x + 0x0026)
   0B85 74 C2         [12] 1782 	mov	a,#0xC2
   0B87 F0            [24] 1783 	movx	@dptr,a
   0B88 90 12 27      [24] 1784 	mov	dptr,#(_x + 0x0027)
   0B8B 74 81         [12] 1785 	mov	a,#0x81
   0B8D F0            [24] 1786 	movx	@dptr,a
   0B8E 90 12 28      [24] 1787 	mov	dptr,#(_x + 0x0028)
   0B91 74 BD         [12] 1788 	mov	a,#0xBD
   0B93 F0            [24] 1789 	movx	@dptr,a
   0B94 90 12 29      [24] 1790 	mov	dptr,#(_x + 0x0029)
   0B97 74 2F         [12] 1791 	mov	a,#0x2F
   0B99 F0            [24] 1792 	movx	@dptr,a
   0B9A 90 12 2A      [24] 1793 	mov	dptr,#(_x + 0x002a)
   0B9D 74 64         [12] 1794 	mov	a,#0x64
   0B9F F0            [24] 1795 	movx	@dptr,a
   0BA0 90 12 2B      [24] 1796 	mov	dptr,#(_x + 0x002b)
   0BA3 74 53         [12] 1797 	mov	a,#0x53
   0BA5 F0            [24] 1798 	movx	@dptr,a
   0BA6 90 12 2C      [24] 1799 	mov	dptr,#(_x + 0x002c)
   0BA9 74 ED         [12] 1800 	mov	a,#0xED
   0BAB F0            [24] 1801 	movx	@dptr,a
   0BAC 90 12 2D      [24] 1802 	mov	dptr,#(_x + 0x002d)
   0BAF 74 32         [12] 1803 	mov	a,#0x32
   0BB1 F0            [24] 1804 	movx	@dptr,a
   0BB2 90 12 2E      [24] 1805 	mov	dptr,#(_x + 0x002e)
   0BB5 74 3C         [12] 1806 	mov	a,#0x3C
   0BB7 F0            [24] 1807 	movx	@dptr,a
   0BB8 90 12 2F      [24] 1808 	mov	dptr,#(_x + 0x002f)
   0BBB 74 2D         [12] 1809 	mov	a,#0x2D
   0BBD F0            [24] 1810 	movx	@dptr,a
   0BBE 90 12 30      [24] 1811 	mov	dptr,#(_x + 0x0030)
   0BC1 74 31         [12] 1812 	mov	a,#0x31
   0BC3 F0            [24] 1813 	movx	@dptr,a
   0BC4 90 12 31      [24] 1814 	mov	dptr,#(_x + 0x0031)
   0BC7 74 23         [12] 1815 	mov	a,#0x23
   0BC9 F0            [24] 1816 	movx	@dptr,a
   0BCA 90 12 32      [24] 1817 	mov	dptr,#(_x + 0x0032)
   0BCD 74 CF         [12] 1818 	mov	a,#0xCF
   0BCF F0            [24] 1819 	movx	@dptr,a
   0BD0 90 12 33      [24] 1820 	mov	dptr,#(_x + 0x0033)
   0BD3 74 D8         [12] 1821 	mov	a,#0xD8
   0BD5 F0            [24] 1822 	movx	@dptr,a
   0BD6 90 12 34      [24] 1823 	mov	dptr,#(_x + 0x0034)
   0BD9 74 0F         [12] 1824 	mov	a,#0x0F
   0BDB F0            [24] 1825 	movx	@dptr,a
   0BDC 90 12 35      [24] 1826 	mov	dptr,#(_x + 0x0035)
   0BDF 74 E9         [12] 1827 	mov	a,#0xE9
   0BE1 F0            [24] 1828 	movx	@dptr,a
   0BE2 90 12 36      [24] 1829 	mov	dptr,#(_x + 0x0036)
   0BE5 74 13         [12] 1830 	mov	a,#0x13
   0BE7 F0            [24] 1831 	movx	@dptr,a
   0BE8 90 12 37      [24] 1832 	mov	dptr,#(_x + 0x0037)
   0BEB 74 51         [12] 1833 	mov	a,#0x51
   0BED F0            [24] 1834 	movx	@dptr,a
   0BEE 90 12 38      [24] 1835 	mov	dptr,#(_x + 0x0038)
   0BF1 74 2D         [12] 1836 	mov	a,#0x2D
   0BF3 F0            [24] 1837 	movx	@dptr,a
   0BF4 90 12 39      [24] 1838 	mov	dptr,#(_x + 0x0039)
   0BF7 74 F8         [12] 1839 	mov	a,#0xF8
   0BF9 F0            [24] 1840 	movx	@dptr,a
   0BFA 90 12 3A      [24] 1841 	mov	dptr,#(_x + 0x003a)
   0BFD 74 AC         [12] 1842 	mov	a,#0xAC
   0BFF F0            [24] 1843 	movx	@dptr,a
   0C00 90 12 3B      [24] 1844 	mov	dptr,#(_x + 0x003b)
   0C03 74 36         [12] 1845 	mov	a,#0x36
   0C05 F0            [24] 1846 	movx	@dptr,a
   0C06 90 12 3C      [24] 1847 	mov	dptr,#(_x + 0x003c)
   0C09 74 A6         [12] 1848 	mov	a,#0xA6
   0C0B F0            [24] 1849 	movx	@dptr,a
   0C0C 90 12 3D      [24] 1850 	mov	dptr,#(_x + 0x003d)
   0C0F 74 5D         [12] 1851 	mov	a,#0x5D
   0C11 F0            [24] 1852 	movx	@dptr,a
   0C12 90 12 3E      [24] 1853 	mov	dptr,#(_x + 0x003e)
   0C15 74 8F         [12] 1854 	mov	a,#0x8F
   0C17 F0            [24] 1855 	movx	@dptr,a
   0C18 90 12 3F      [24] 1856 	mov	dptr,#(_x + 0x003f)
   0C1B 74 70         [12] 1857 	mov	a,#0x70
   0C1D F0            [24] 1858 	movx	@dptr,a
   0C1E 90 12 40      [24] 1859 	mov	dptr,#(_x + 0x0040)
   0C21 74 22         [12] 1860 	mov	a,#0x22
   0C23 F0            [24] 1861 	movx	@dptr,a
   0C24 90 12 41      [24] 1862 	mov	dptr,#(_x + 0x0041)
   0C27 74 60         [12] 1863 	mov	a,#0x60
   0C29 F0            [24] 1864 	movx	@dptr,a
   0C2A 90 12 42      [24] 1865 	mov	dptr,#(_x + 0x0042)
   0C2D 74 82         [12] 1866 	mov	a,#0x82
   0C2F F0            [24] 1867 	movx	@dptr,a
   0C30 90 12 43      [24] 1868 	mov	dptr,#(_x + 0x0043)
   0C33 74 88         [12] 1869 	mov	a,#0x88
   0C35 F0            [24] 1870 	movx	@dptr,a
   0C36 90 12 44      [24] 1871 	mov	dptr,#(_x + 0x0044)
   0C39 74 8C         [12] 1872 	mov	a,#0x8C
   0C3B F0            [24] 1873 	movx	@dptr,a
   0C3C 90 12 45      [24] 1874 	mov	dptr,#(_x + 0x0045)
   0C3F 74 E3         [12] 1875 	mov	a,#0xE3
   0C41 F0            [24] 1876 	movx	@dptr,a
   0C42 90 12 46      [24] 1877 	mov	dptr,#(_x + 0x0046)
   0C45 74 43         [12] 1878 	mov	a,#0x43
   0C47 F0            [24] 1879 	movx	@dptr,a
   0C48 90 12 47      [24] 1880 	mov	dptr,#(_x + 0x0047)
   0C4B 74 4A         [12] 1881 	mov	a,#0x4A
   0C4D F0            [24] 1882 	movx	@dptr,a
   0C4E 90 12 48      [24] 1883 	mov	dptr,#(_x + 0x0048)
   0C51 74 9F         [12] 1884 	mov	a,#0x9F
   0C53 F0            [24] 1885 	movx	@dptr,a
   0C54 90 12 49      [24] 1886 	mov	dptr,#(_x + 0x0049)
   0C57 74 87         [12] 1887 	mov	a,#0x87
   0C59 F0            [24] 1888 	movx	@dptr,a
   0C5A 90 12 4A      [24] 1889 	mov	dptr,#(_x + 0x004a)
   0C5D 74 05         [12] 1890 	mov	a,#0x05
   0C5F F0            [24] 1891 	movx	@dptr,a
   0C60 90 12 4B      [24] 1892 	mov	dptr,#(_x + 0x004b)
   0C63 74 ED         [12] 1893 	mov	a,#0xED
   0C65 F0            [24] 1894 	movx	@dptr,a
   0C66 90 12 4C      [24] 1895 	mov	dptr,#(_x + 0x004c)
   0C69 74 C9         [12] 1896 	mov	a,#0xC9
   0C6B F0            [24] 1897 	movx	@dptr,a
   0C6C 90 12 4D      [24] 1898 	mov	dptr,#(_x + 0x004d)
   0C6F 74 13         [12] 1899 	mov	a,#0x13
   0C71 F0            [24] 1900 	movx	@dptr,a
   0C72 90 12 4E      [24] 1901 	mov	dptr,#(_x + 0x004e)
   0C75 74 0A         [12] 1902 	mov	a,#0x0A
   0C77 F0            [24] 1903 	movx	@dptr,a
   0C78 90 12 4F      [24] 1904 	mov	dptr,#(_x + 0x004f)
   0C7B 74 BE         [12] 1905 	mov	a,#0xBE
   0C7D F0            [24] 1906 	movx	@dptr,a
   0C7E 90 12 50      [24] 1907 	mov	dptr,#(_x + 0x0050)
   0C81 74 CF         [12] 1908 	mov	a,#0xCF
   0C83 F0            [24] 1909 	movx	@dptr,a
   0C84 90 12 51      [24] 1910 	mov	dptr,#(_x + 0x0051)
   0C87 74 6F         [12] 1911 	mov	a,#0x6F
   0C89 F0            [24] 1912 	movx	@dptr,a
   0C8A 90 12 52      [24] 1913 	mov	dptr,#(_x + 0x0052)
   0C8D 74 07         [12] 1914 	mov	a,#0x07
   0C8F F0            [24] 1915 	movx	@dptr,a
   0C90 90 12 53      [24] 1916 	mov	dptr,#(_x + 0x0053)
   0C93 74 41         [12] 1917 	mov	a,#0x41
   0C95 F0            [24] 1918 	movx	@dptr,a
   0C96 90 12 54      [24] 1919 	mov	dptr,#(_x + 0x0054)
   0C99 74 89         [12] 1920 	mov	a,#0x89
   0C9B F0            [24] 1921 	movx	@dptr,a
   0C9C 90 12 55      [24] 1922 	mov	dptr,#(_x + 0x0055)
   0C9F 74 7A         [12] 1923 	mov	a,#0x7A
   0CA1 F0            [24] 1924 	movx	@dptr,a
   0CA2 90 12 56      [24] 1925 	mov	dptr,#(_x + 0x0056)
   0CA5 74 E8         [12] 1926 	mov	a,#0xE8
   0CA7 F0            [24] 1927 	movx	@dptr,a
   0CA8 90 12 57      [24] 1928 	mov	dptr,#(_x + 0x0057)
   0CAB 74 BD         [12] 1929 	mov	a,#0xBD
   0CAD F0            [24] 1930 	movx	@dptr,a
   0CAE 90 12 58      [24] 1931 	mov	dptr,#(_x + 0x0058)
   0CB1 74 F1         [12] 1932 	mov	a,#0xF1
   0CB3 F0            [24] 1933 	movx	@dptr,a
   0CB4 90 12 59      [24] 1934 	mov	dptr,#(_x + 0x0059)
   0CB7 74 DD         [12] 1935 	mov	a,#0xDD
   0CB9 F0            [24] 1936 	movx	@dptr,a
   0CBA 90 12 5A      [24] 1937 	mov	dptr,#(_x + 0x005a)
   0CBD 74 33         [12] 1938 	mov	a,#0x33
   0CBF F0            [24] 1939 	movx	@dptr,a
   0CC0 90 12 5B      [24] 1940 	mov	dptr,#(_x + 0x005b)
   0CC3 74 70         [12] 1941 	mov	a,#0x70
   0CC5 F0            [24] 1942 	movx	@dptr,a
   0CC6 90 12 5C      [24] 1943 	mov	dptr,#(_x + 0x005c)
   0CC9 74 80         [12] 1944 	mov	a,#0x80
   0CCB F0            [24] 1945 	movx	@dptr,a
   0CCC 90 12 5D      [24] 1946 	mov	dptr,#(_x + 0x005d)
   0CCF 74 D0         [12] 1947 	mov	a,#0xD0
   0CD1 F0            [24] 1948 	movx	@dptr,a
   0CD2 90 12 5E      [24] 1949 	mov	dptr,#(_x + 0x005e)
   0CD5 74 10         [12] 1950 	mov	a,#0x10
   0CD7 F0            [24] 1951 	movx	@dptr,a
   0CD8 90 12 5F      [24] 1952 	mov	dptr,#(_x + 0x005f)
   0CDB 74 A3         [12] 1953 	mov	a,#0xA3
   0CDD F0            [24] 1954 	movx	@dptr,a
   0CDE 90 12 60      [24] 1955 	mov	dptr,#(_x + 0x0060)
   0CE1 74 D2         [12] 1956 	mov	a,#0xD2
   0CE3 F0            [24] 1957 	movx	@dptr,a
   0CE4 90 12 61      [24] 1958 	mov	dptr,#(_x + 0x0061)
   0CE7 74 25         [12] 1959 	mov	a,#0x25
   0CE9 F0            [24] 1960 	movx	@dptr,a
   0CEA 90 12 62      [24] 1961 	mov	dptr,#(_x + 0x0062)
   0CED 74 B3         [12] 1962 	mov	a,#0xB3
   0CEF F0            [24] 1963 	movx	@dptr,a
   0CF0 90 12 63      [24] 1964 	mov	dptr,#(_x + 0x0063)
   0CF3 74 CC         [12] 1965 	mov	a,#0xCC
   0CF5 F0            [24] 1966 	movx	@dptr,a
   0CF6 90 12 64      [24] 1967 	mov	dptr,#(_x + 0x0064)
   0CF9 74 4C         [12] 1968 	mov	a,#0x4C
   0CFB F0            [24] 1969 	movx	@dptr,a
   0CFC 90 12 65      [24] 1970 	mov	dptr,#(_x + 0x0065)
   0CFF 74 62         [12] 1971 	mov	a,#0x62
   0D01 F0            [24] 1972 	movx	@dptr,a
   0D02 90 12 66      [24] 1973 	mov	dptr,#(_x + 0x0066)
   0D05 74 19         [12] 1974 	mov	a,#0x19
   0D07 F0            [24] 1975 	movx	@dptr,a
   0D08 90 12 67      [24] 1976 	mov	dptr,#(_x + 0x0067)
   0D0B 74 BC         [12] 1977 	mov	a,#0xBC
   0D0D F0            [24] 1978 	movx	@dptr,a
   0D0E 90 12 68      [24] 1979 	mov	dptr,#(_x + 0x0068)
   0D11 74 7A         [12] 1980 	mov	a,#0x7A
   0D13 F0            [24] 1981 	movx	@dptr,a
   0D14 90 12 69      [24] 1982 	mov	dptr,#(_x + 0x0069)
   0D17 74 92         [12] 1983 	mov	a,#0x92
   0D19 F0            [24] 1984 	movx	@dptr,a
   0D1A 90 12 6A      [24] 1985 	mov	dptr,#(_x + 0x006a)
   0D1D 74 8B         [12] 1986 	mov	a,#0x8B
   0D1F F0            [24] 1987 	movx	@dptr,a
   0D20 90 12 6B      [24] 1988 	mov	dptr,#(_x + 0x006b)
   0D23 74 46         [12] 1989 	mov	a,#0x46
   0D25 F0            [24] 1990 	movx	@dptr,a
   0D26 90 12 6C      [24] 1991 	mov	dptr,#(_x + 0x006c)
   0D29 74 BC         [12] 1992 	mov	a,#0xBC
   0D2B F0            [24] 1993 	movx	@dptr,a
   0D2C 90 12 6D      [24] 1994 	mov	dptr,#(_x + 0x006d)
   0D2F 74 7A         [12] 1995 	mov	a,#0x7A
   0D31 F0            [24] 1996 	movx	@dptr,a
   0D32 90 12 6E      [24] 1997 	mov	dptr,#(_x + 0x006e)
   0D35 74 F4         [12] 1998 	mov	a,#0xF4
   0D37 F0            [24] 1999 	movx	@dptr,a
   0D38 90 12 6F      [24] 2000 	mov	dptr,#(_x + 0x006f)
   0D3B 74 A7         [12] 2001 	mov	a,#0xA7
   0D3D F0            [24] 2002 	movx	@dptr,a
   0D3E 90 12 70      [24] 2003 	mov	dptr,#(_x + 0x0070)
   0D41 74 C6         [12] 2004 	mov	a,#0xC6
   0D43 F0            [24] 2005 	movx	@dptr,a
   0D44 90 12 71      [24] 2006 	mov	dptr,#(_x + 0x0071)
   0D47 74 F7         [12] 2007 	mov	a,#0xF7
   0D49 F0            [24] 2008 	movx	@dptr,a
   0D4A 90 12 72      [24] 2009 	mov	dptr,#(_x + 0x0072)
   0D4D 74 1A         [12] 2010 	mov	a,#0x1A
   0D4F F0            [24] 2011 	movx	@dptr,a
   0D50 90 12 73      [24] 2012 	mov	dptr,#(_x + 0x0073)
   0D53 74 76         [12] 2013 	mov	a,#0x76
   0D55 F0            [24] 2014 	movx	@dptr,a
   0D56 90 12 74      [24] 2015 	mov	dptr,#(_x + 0x0074)
   0D59 74 EE         [12] 2016 	mov	a,#0xEE
   0D5B F0            [24] 2017 	movx	@dptr,a
   0D5C 90 12 75      [24] 2018 	mov	dptr,#(_x + 0x0075)
   0D5F 74 6E         [12] 2019 	mov	a,#0x6E
   0D61 F0            [24] 2020 	movx	@dptr,a
   0D62 90 12 76      [24] 2021 	mov	dptr,#(_x + 0x0076)
   0D65 74 AC         [12] 2022 	mov	a,#0xAC
   0D67 F0            [24] 2023 	movx	@dptr,a
   0D68 90 12 77      [24] 2024 	mov	dptr,#(_x + 0x0077)
   0D6B 74 03         [12] 2025 	mov	a,#0x03
   0D6D F0            [24] 2026 	movx	@dptr,a
   0D6E 90 12 78      [24] 2027 	mov	dptr,#(_x + 0x0078)
   0D71 74 4D         [12] 2028 	mov	a,#0x4D
   0D73 F0            [24] 2029 	movx	@dptr,a
   0D74 90 12 79      [24] 2030 	mov	dptr,#(_x + 0x0079)
   0D77 74 AA         [12] 2031 	mov	a,#0xAA
   0D79 F0            [24] 2032 	movx	@dptr,a
   0D7A 90 12 7A      [24] 2033 	mov	dptr,#(_x + 0x007a)
   0D7D 74 3F         [12] 2034 	mov	a,#0x3F
   0D7F F0            [24] 2035 	movx	@dptr,a
   0D80 90 12 7B      [24] 2036 	mov	dptr,#(_x + 0x007b)
   0D83 74 C9         [12] 2037 	mov	a,#0xC9
   0D85 F0            [24] 2038 	movx	@dptr,a
   0D86 90 12 7C      [24] 2039 	mov	dptr,#(_x + 0x007c)
   0D89 74 3E         [12] 2040 	mov	a,#0x3E
   0D8B F0            [24] 2041 	movx	@dptr,a
   0D8C 90 12 7D      [24] 2042 	mov	dptr,#(_x + 0x007d)
   0D8F 74 E5         [12] 2043 	mov	a,#0xE5
   0D91 F0            [24] 2044 	movx	@dptr,a
   0D92 90 12 7E      [24] 2045 	mov	dptr,#(_x + 0x007e)
   0D95 74 92         [12] 2046 	mov	a,#0x92
   0D97 F0            [24] 2047 	movx	@dptr,a
   0D98 90 12 7F      [24] 2048 	mov	dptr,#(_x + 0x007f)
   0D9B 74 C8         [12] 2049 	mov	a,#0xC8
   0D9D F0            [24] 2050 	movx	@dptr,a
   0D9E 90 12 80      [24] 2051 	mov	dptr,#(_x + 0x0080)
   0DA1 E4            [12] 2052 	clr	a
   0DA2 F0            [24] 2053 	movx	@dptr,a
   0DA3 90 12 81      [24] 2054 	mov	dptr,#(_x + 0x0081)
   0DA6 F0            [24] 2055 	movx	@dptr,a
   0DA7 90 12 82      [24] 2056 	mov	dptr,#(_x + 0x0082)
   0DAA F0            [24] 2057 	movx	@dptr,a
   0DAB 90 12 83      [24] 2058 	mov	dptr,#(_x + 0x0083)
   0DAE F0            [24] 2059 	movx	@dptr,a
   0DAF 90 12 84      [24] 2060 	mov	dptr,#(_x + 0x0084)
   0DB2 E4            [12] 2061 	clr	a
   0DB3 F0            [24] 2062 	movx	@dptr,a
   0DB4 90 12 85      [24] 2063 	mov	dptr,#(_x + 0x0085)
   0DB7 F0            [24] 2064 	movx	@dptr,a
   0DB8 90 12 86      [24] 2065 	mov	dptr,#(_x + 0x0086)
   0DBB F0            [24] 2066 	movx	@dptr,a
   0DBC 90 12 87      [24] 2067 	mov	dptr,#(_x + 0x0087)
   0DBF F0            [24] 2068 	movx	@dptr,a
   0DC0 90 12 88      [24] 2069 	mov	dptr,#(_x + 0x0088)
   0DC3 E4            [12] 2070 	clr	a
   0DC4 F0            [24] 2071 	movx	@dptr,a
   0DC5 90 12 89      [24] 2072 	mov	dptr,#(_x + 0x0089)
   0DC8 F0            [24] 2073 	movx	@dptr,a
   0DC9 90 12 8A      [24] 2074 	mov	dptr,#(_x + 0x008a)
   0DCC F0            [24] 2075 	movx	@dptr,a
   0DCD 90 12 8B      [24] 2076 	mov	dptr,#(_x + 0x008b)
   0DD0 F0            [24] 2077 	movx	@dptr,a
   0DD1 90 12 8C      [24] 2078 	mov	dptr,#(_x + 0x008c)
   0DD4 E4            [12] 2079 	clr	a
   0DD5 F0            [24] 2080 	movx	@dptr,a
   0DD6 90 12 8D      [24] 2081 	mov	dptr,#(_x + 0x008d)
   0DD9 F0            [24] 2082 	movx	@dptr,a
   0DDA 90 12 8E      [24] 2083 	mov	dptr,#(_x + 0x008e)
   0DDD F0            [24] 2084 	movx	@dptr,a
   0DDE 90 12 8F      [24] 2085 	mov	dptr,#(_x + 0x008f)
   0DE1 F0            [24] 2086 	movx	@dptr,a
   0DE2 90 12 90      [24] 2087 	mov	dptr,#(_x + 0x0090)
   0DE5 E4            [12] 2088 	clr	a
   0DE6 F0            [24] 2089 	movx	@dptr,a
   0DE7 90 12 91      [24] 2090 	mov	dptr,#(_x + 0x0091)
   0DEA F0            [24] 2091 	movx	@dptr,a
   0DEB 90 12 92      [24] 2092 	mov	dptr,#(_x + 0x0092)
   0DEE F0            [24] 2093 	movx	@dptr,a
   0DEF 90 12 93      [24] 2094 	mov	dptr,#(_x + 0x0093)
   0DF2 F0            [24] 2095 	movx	@dptr,a
   0DF3 90 12 94      [24] 2096 	mov	dptr,#(_x + 0x0094)
   0DF6 E4            [12] 2097 	clr	a
   0DF7 F0            [24] 2098 	movx	@dptr,a
   0DF8 90 12 95      [24] 2099 	mov	dptr,#(_x + 0x0095)
   0DFB F0            [24] 2100 	movx	@dptr,a
   0DFC 90 12 96      [24] 2101 	mov	dptr,#(_x + 0x0096)
   0DFF F0            [24] 2102 	movx	@dptr,a
   0E00 90 12 97      [24] 2103 	mov	dptr,#(_x + 0x0097)
   0E03 F0            [24] 2104 	movx	@dptr,a
   0E04 90 12 98      [24] 2105 	mov	dptr,#(_x + 0x0098)
   0E07 E4            [12] 2106 	clr	a
   0E08 F0            [24] 2107 	movx	@dptr,a
   0E09 90 12 99      [24] 2108 	mov	dptr,#(_x + 0x0099)
   0E0C F0            [24] 2109 	movx	@dptr,a
   0E0D 90 12 9A      [24] 2110 	mov	dptr,#(_x + 0x009a)
   0E10 F0            [24] 2111 	movx	@dptr,a
   0E11 90 12 9B      [24] 2112 	mov	dptr,#(_x + 0x009b)
   0E14 F0            [24] 2113 	movx	@dptr,a
   0E15 90 12 9C      [24] 2114 	mov	dptr,#(_x + 0x009c)
   0E18 E4            [12] 2115 	clr	a
   0E19 F0            [24] 2116 	movx	@dptr,a
   0E1A 90 12 9D      [24] 2117 	mov	dptr,#(_x + 0x009d)
   0E1D F0            [24] 2118 	movx	@dptr,a
   0E1E 90 12 9E      [24] 2119 	mov	dptr,#(_x + 0x009e)
   0E21 F0            [24] 2120 	movx	@dptr,a
   0E22 90 12 9F      [24] 2121 	mov	dptr,#(_x + 0x009f)
   0E25 F0            [24] 2122 	movx	@dptr,a
   0E26 90 12 A0      [24] 2123 	mov	dptr,#(_x + 0x00a0)
   0E29 E4            [12] 2124 	clr	a
   0E2A F0            [24] 2125 	movx	@dptr,a
   0E2B 90 12 A1      [24] 2126 	mov	dptr,#(_x + 0x00a1)
   0E2E F0            [24] 2127 	movx	@dptr,a
   0E2F 90 12 A2      [24] 2128 	mov	dptr,#(_x + 0x00a2)
   0E32 F0            [24] 2129 	movx	@dptr,a
   0E33 90 12 A3      [24] 2130 	mov	dptr,#(_x + 0x00a3)
   0E36 F0            [24] 2131 	movx	@dptr,a
   0E37 90 12 A4      [24] 2132 	mov	dptr,#(_x + 0x00a4)
   0E3A E4            [12] 2133 	clr	a
   0E3B F0            [24] 2134 	movx	@dptr,a
   0E3C 90 12 A5      [24] 2135 	mov	dptr,#(_x + 0x00a5)
   0E3F F0            [24] 2136 	movx	@dptr,a
   0E40 90 12 A6      [24] 2137 	mov	dptr,#(_x + 0x00a6)
   0E43 F0            [24] 2138 	movx	@dptr,a
   0E44 90 12 A7      [24] 2139 	mov	dptr,#(_x + 0x00a7)
   0E47 F0            [24] 2140 	movx	@dptr,a
   0E48 90 12 A8      [24] 2141 	mov	dptr,#(_x + 0x00a8)
   0E4B E4            [12] 2142 	clr	a
   0E4C F0            [24] 2143 	movx	@dptr,a
   0E4D 90 12 A9      [24] 2144 	mov	dptr,#(_x + 0x00a9)
   0E50 F0            [24] 2145 	movx	@dptr,a
   0E51 90 12 AA      [24] 2146 	mov	dptr,#(_x + 0x00aa)
   0E54 F0            [24] 2147 	movx	@dptr,a
   0E55 90 12 AB      [24] 2148 	mov	dptr,#(_x + 0x00ab)
   0E58 F0            [24] 2149 	movx	@dptr,a
   0E59 90 12 AC      [24] 2150 	mov	dptr,#(_x + 0x00ac)
   0E5C E4            [12] 2151 	clr	a
   0E5D F0            [24] 2152 	movx	@dptr,a
   0E5E 90 12 AD      [24] 2153 	mov	dptr,#(_x + 0x00ad)
   0E61 F0            [24] 2154 	movx	@dptr,a
   0E62 90 12 AE      [24] 2155 	mov	dptr,#(_x + 0x00ae)
   0E65 F0            [24] 2156 	movx	@dptr,a
   0E66 90 12 AF      [24] 2157 	mov	dptr,#(_x + 0x00af)
   0E69 F0            [24] 2158 	movx	@dptr,a
   0E6A 90 12 B0      [24] 2159 	mov	dptr,#(_x + 0x00b0)
   0E6D E4            [12] 2160 	clr	a
   0E6E F0            [24] 2161 	movx	@dptr,a
   0E6F 90 12 B1      [24] 2162 	mov	dptr,#(_x + 0x00b1)
   0E72 F0            [24] 2163 	movx	@dptr,a
   0E73 90 12 B2      [24] 2164 	mov	dptr,#(_x + 0x00b2)
   0E76 F0            [24] 2165 	movx	@dptr,a
   0E77 90 12 B3      [24] 2166 	mov	dptr,#(_x + 0x00b3)
   0E7A F0            [24] 2167 	movx	@dptr,a
   0E7B 90 12 B4      [24] 2168 	mov	dptr,#(_x + 0x00b4)
   0E7E E4            [12] 2169 	clr	a
   0E7F F0            [24] 2170 	movx	@dptr,a
   0E80 90 12 B5      [24] 2171 	mov	dptr,#(_x + 0x00b5)
   0E83 F0            [24] 2172 	movx	@dptr,a
   0E84 90 12 B6      [24] 2173 	mov	dptr,#(_x + 0x00b6)
   0E87 F0            [24] 2174 	movx	@dptr,a
   0E88 90 12 B7      [24] 2175 	mov	dptr,#(_x + 0x00b7)
   0E8B F0            [24] 2176 	movx	@dptr,a
   0E8C 90 12 B8      [24] 2177 	mov	dptr,#(_x + 0x00b8)
   0E8F E4            [12] 2178 	clr	a
   0E90 F0            [24] 2179 	movx	@dptr,a
   0E91 90 12 B9      [24] 2180 	mov	dptr,#(_x + 0x00b9)
   0E94 F0            [24] 2181 	movx	@dptr,a
   0E95 90 12 BA      [24] 2182 	mov	dptr,#(_x + 0x00ba)
   0E98 F0            [24] 2183 	movx	@dptr,a
   0E99 90 12 BB      [24] 2184 	mov	dptr,#(_x + 0x00bb)
   0E9C F0            [24] 2185 	movx	@dptr,a
   0E9D 90 12 BC      [24] 2186 	mov	dptr,#(_x + 0x00bc)
   0EA0 E4            [12] 2187 	clr	a
   0EA1 F0            [24] 2188 	movx	@dptr,a
   0EA2 90 12 BD      [24] 2189 	mov	dptr,#(_x + 0x00bd)
   0EA5 F0            [24] 2190 	movx	@dptr,a
   0EA6 90 12 BE      [24] 2191 	mov	dptr,#(_x + 0x00be)
   0EA9 F0            [24] 2192 	movx	@dptr,a
   0EAA 90 12 BF      [24] 2193 	mov	dptr,#(_x + 0x00bf)
   0EAD F0            [24] 2194 	movx	@dptr,a
   0EAE 90 12 C0      [24] 2195 	mov	dptr,#(_x + 0x00c0)
   0EB1 E4            [12] 2196 	clr	a
   0EB2 F0            [24] 2197 	movx	@dptr,a
   0EB3 90 12 C1      [24] 2198 	mov	dptr,#(_x + 0x00c1)
   0EB6 F0            [24] 2199 	movx	@dptr,a
   0EB7 90 12 C2      [24] 2200 	mov	dptr,#(_x + 0x00c2)
   0EBA F0            [24] 2201 	movx	@dptr,a
   0EBB 90 12 C3      [24] 2202 	mov	dptr,#(_x + 0x00c3)
   0EBE F0            [24] 2203 	movx	@dptr,a
   0EBF 90 12 C4      [24] 2204 	mov	dptr,#(_x + 0x00c4)
   0EC2 E4            [12] 2205 	clr	a
   0EC3 F0            [24] 2206 	movx	@dptr,a
   0EC4 90 12 C5      [24] 2207 	mov	dptr,#(_x + 0x00c5)
   0EC7 F0            [24] 2208 	movx	@dptr,a
   0EC8 90 12 C6      [24] 2209 	mov	dptr,#(_x + 0x00c6)
   0ECB F0            [24] 2210 	movx	@dptr,a
   0ECC 90 12 C7      [24] 2211 	mov	dptr,#(_x + 0x00c7)
   0ECF F0            [24] 2212 	movx	@dptr,a
   0ED0 90 12 C8      [24] 2213 	mov	dptr,#(_x + 0x00c8)
   0ED3 E4            [12] 2214 	clr	a
   0ED4 F0            [24] 2215 	movx	@dptr,a
   0ED5 90 12 C9      [24] 2216 	mov	dptr,#(_x + 0x00c9)
   0ED8 F0            [24] 2217 	movx	@dptr,a
   0ED9 90 12 CA      [24] 2218 	mov	dptr,#(_x + 0x00ca)
   0EDC F0            [24] 2219 	movx	@dptr,a
   0EDD 90 12 CB      [24] 2220 	mov	dptr,#(_x + 0x00cb)
   0EE0 F0            [24] 2221 	movx	@dptr,a
   0EE1 90 12 CC      [24] 2222 	mov	dptr,#(_x + 0x00cc)
   0EE4 E4            [12] 2223 	clr	a
   0EE5 F0            [24] 2224 	movx	@dptr,a
   0EE6 90 12 CD      [24] 2225 	mov	dptr,#(_x + 0x00cd)
   0EE9 F0            [24] 2226 	movx	@dptr,a
   0EEA 90 12 CE      [24] 2227 	mov	dptr,#(_x + 0x00ce)
   0EED F0            [24] 2228 	movx	@dptr,a
   0EEE 90 12 CF      [24] 2229 	mov	dptr,#(_x + 0x00cf)
   0EF1 F0            [24] 2230 	movx	@dptr,a
   0EF2 90 12 D0      [24] 2231 	mov	dptr,#(_x + 0x00d0)
   0EF5 E4            [12] 2232 	clr	a
   0EF6 F0            [24] 2233 	movx	@dptr,a
   0EF7 90 12 D1      [24] 2234 	mov	dptr,#(_x + 0x00d1)
   0EFA F0            [24] 2235 	movx	@dptr,a
   0EFB 90 12 D2      [24] 2236 	mov	dptr,#(_x + 0x00d2)
   0EFE F0            [24] 2237 	movx	@dptr,a
   0EFF 90 12 D3      [24] 2238 	mov	dptr,#(_x + 0x00d3)
   0F02 F0            [24] 2239 	movx	@dptr,a
   0F03 90 12 D4      [24] 2240 	mov	dptr,#(_x + 0x00d4)
   0F06 E4            [12] 2241 	clr	a
   0F07 F0            [24] 2242 	movx	@dptr,a
   0F08 90 12 D5      [24] 2243 	mov	dptr,#(_x + 0x00d5)
   0F0B F0            [24] 2244 	movx	@dptr,a
   0F0C 90 12 D6      [24] 2245 	mov	dptr,#(_x + 0x00d6)
   0F0F F0            [24] 2246 	movx	@dptr,a
   0F10 90 12 D7      [24] 2247 	mov	dptr,#(_x + 0x00d7)
   0F13 F0            [24] 2248 	movx	@dptr,a
   0F14 90 12 D8      [24] 2249 	mov	dptr,#(_x + 0x00d8)
   0F17 E4            [12] 2250 	clr	a
   0F18 F0            [24] 2251 	movx	@dptr,a
   0F19 90 12 D9      [24] 2252 	mov	dptr,#(_x + 0x00d9)
   0F1C F0            [24] 2253 	movx	@dptr,a
   0F1D 90 12 DA      [24] 2254 	mov	dptr,#(_x + 0x00da)
   0F20 F0            [24] 2255 	movx	@dptr,a
   0F21 90 12 DB      [24] 2256 	mov	dptr,#(_x + 0x00db)
   0F24 F0            [24] 2257 	movx	@dptr,a
   0F25 90 12 DC      [24] 2258 	mov	dptr,#(_x + 0x00dc)
   0F28 E4            [12] 2259 	clr	a
   0F29 F0            [24] 2260 	movx	@dptr,a
   0F2A 90 12 DD      [24] 2261 	mov	dptr,#(_x + 0x00dd)
   0F2D F0            [24] 2262 	movx	@dptr,a
   0F2E 90 12 DE      [24] 2263 	mov	dptr,#(_x + 0x00de)
   0F31 F0            [24] 2264 	movx	@dptr,a
   0F32 90 12 DF      [24] 2265 	mov	dptr,#(_x + 0x00df)
   0F35 F0            [24] 2266 	movx	@dptr,a
   0F36 90 12 E0      [24] 2267 	mov	dptr,#(_x + 0x00e0)
   0F39 E4            [12] 2268 	clr	a
   0F3A F0            [24] 2269 	movx	@dptr,a
   0F3B 90 12 E1      [24] 2270 	mov	dptr,#(_x + 0x00e1)
   0F3E F0            [24] 2271 	movx	@dptr,a
   0F3F 90 12 E2      [24] 2272 	mov	dptr,#(_x + 0x00e2)
   0F42 F0            [24] 2273 	movx	@dptr,a
   0F43 90 12 E3      [24] 2274 	mov	dptr,#(_x + 0x00e3)
   0F46 F0            [24] 2275 	movx	@dptr,a
   0F47 90 12 E4      [24] 2276 	mov	dptr,#(_x + 0x00e4)
   0F4A E4            [12] 2277 	clr	a
   0F4B F0            [24] 2278 	movx	@dptr,a
   0F4C 90 12 E5      [24] 2279 	mov	dptr,#(_x + 0x00e5)
   0F4F F0            [24] 2280 	movx	@dptr,a
   0F50 90 12 E6      [24] 2281 	mov	dptr,#(_x + 0x00e6)
   0F53 F0            [24] 2282 	movx	@dptr,a
   0F54 90 12 E7      [24] 2283 	mov	dptr,#(_x + 0x00e7)
   0F57 F0            [24] 2284 	movx	@dptr,a
   0F58 90 12 E8      [24] 2285 	mov	dptr,#(_x + 0x00e8)
   0F5B E4            [12] 2286 	clr	a
   0F5C F0            [24] 2287 	movx	@dptr,a
   0F5D 90 12 E9      [24] 2288 	mov	dptr,#(_x + 0x00e9)
   0F60 F0            [24] 2289 	movx	@dptr,a
   0F61 90 12 EA      [24] 2290 	mov	dptr,#(_x + 0x00ea)
   0F64 F0            [24] 2291 	movx	@dptr,a
   0F65 90 12 EB      [24] 2292 	mov	dptr,#(_x + 0x00eb)
   0F68 F0            [24] 2293 	movx	@dptr,a
   0F69 90 12 EC      [24] 2294 	mov	dptr,#(_x + 0x00ec)
   0F6C E4            [12] 2295 	clr	a
   0F6D F0            [24] 2296 	movx	@dptr,a
   0F6E 90 12 ED      [24] 2297 	mov	dptr,#(_x + 0x00ed)
   0F71 F0            [24] 2298 	movx	@dptr,a
   0F72 90 12 EE      [24] 2299 	mov	dptr,#(_x + 0x00ee)
   0F75 F0            [24] 2300 	movx	@dptr,a
   0F76 90 12 EF      [24] 2301 	mov	dptr,#(_x + 0x00ef)
   0F79 F0            [24] 2302 	movx	@dptr,a
   0F7A 90 12 F0      [24] 2303 	mov	dptr,#(_x + 0x00f0)
   0F7D E4            [12] 2304 	clr	a
   0F7E F0            [24] 2305 	movx	@dptr,a
   0F7F 90 12 F1      [24] 2306 	mov	dptr,#(_x + 0x00f1)
   0F82 F0            [24] 2307 	movx	@dptr,a
   0F83 90 12 F2      [24] 2308 	mov	dptr,#(_x + 0x00f2)
   0F86 F0            [24] 2309 	movx	@dptr,a
   0F87 90 12 F3      [24] 2310 	mov	dptr,#(_x + 0x00f3)
   0F8A F0            [24] 2311 	movx	@dptr,a
   0F8B 90 12 F4      [24] 2312 	mov	dptr,#(_x + 0x00f4)
   0F8E E4            [12] 2313 	clr	a
   0F8F F0            [24] 2314 	movx	@dptr,a
   0F90 90 12 F5      [24] 2315 	mov	dptr,#(_x + 0x00f5)
   0F93 F0            [24] 2316 	movx	@dptr,a
   0F94 90 12 F6      [24] 2317 	mov	dptr,#(_x + 0x00f6)
   0F97 F0            [24] 2318 	movx	@dptr,a
   0F98 90 12 F7      [24] 2319 	mov	dptr,#(_x + 0x00f7)
   0F9B F0            [24] 2320 	movx	@dptr,a
   0F9C 90 12 F8      [24] 2321 	mov	dptr,#(_x + 0x00f8)
   0F9F E4            [12] 2322 	clr	a
   0FA0 F0            [24] 2323 	movx	@dptr,a
   0FA1 90 12 F9      [24] 2324 	mov	dptr,#(_x + 0x00f9)
   0FA4 F0            [24] 2325 	movx	@dptr,a
   0FA5 90 12 FA      [24] 2326 	mov	dptr,#(_x + 0x00fa)
   0FA8 F0            [24] 2327 	movx	@dptr,a
   0FA9 90 12 FB      [24] 2328 	mov	dptr,#(_x + 0x00fb)
   0FAC F0            [24] 2329 	movx	@dptr,a
   0FAD 90 12 FC      [24] 2330 	mov	dptr,#(_x + 0x00fc)
   0FB0 E4            [12] 2331 	clr	a
   0FB1 F0            [24] 2332 	movx	@dptr,a
   0FB2 90 12 FD      [24] 2333 	mov	dptr,#(_x + 0x00fd)
   0FB5 F0            [24] 2334 	movx	@dptr,a
   0FB6 90 12 FE      [24] 2335 	mov	dptr,#(_x + 0x00fe)
   0FB9 F0            [24] 2336 	movx	@dptr,a
   0FBA 90 12 FF      [24] 2337 	mov	dptr,#(_x + 0x00ff)
   0FBD F0            [24] 2338 	movx	@dptr,a
                           2339 ;	rsa_exponent.c:44: volatile __xdata __at (0x1300) unsigned char rmodm[] = { 0xCF, 0x90, 0x85, 0x19, 0x1A, 0x43, 0x88, 0x59, 0x07, 0x99, 0x61, 0xC4, 0xFD, 0x0B, 0x20, 0xCD, 0x37, 0x58, 0x46, 0xD5, 0xE1, 0x43, 0xF7, 0x41, 0x79, 0xEE, 0x21, 0xD5, 0x30, 0x17, 0x77, 0x71, 0xC4, 0xA3, 0x95, 0x8E, 0xB8, 0xC3, 0xBA, 0xFA, 0xB9, 0x1B, 0x52, 0x6C, 0xBD, 0xE0, 0x88, 0x23, 0xDA, 0x68, 0x8F, 0x1E, 0x4A, 0x14, 0x76, 0x80, 0x56, 0xE1, 0xAF, 0xE2, 0xCC, 0x66, 0xC3, 0xF6, 0x97, 0x1B, 0xE5, 0x30, 0x4F, 0xE1, 0x45, 0xA9, 0xDB, 0x83, 0x71, 0xCA, 0x7B, 0x1F, 0x55, 0xD2, 0x13, 0xA7, 0x5F, 0xB2, 0x76, 0x75, 0xFD, 0xD8, 0xC7, 0xAB, 0xD1, 0xB0, 0x4D, 0x69, 0x54, 0xD6, 0xFE, 0xDE, 0xF8, 0x06, 0x7A, 0xFE, 0x66, 0x18, 0x01, 0x07, 0x65, 0xE6, 0x92, 0x6D, 0x78, 0x97, 0xF1, 0xBA, 0x4F, 0x30, 0x26, 0xC2, 0x5A, 0xC9, 0xD3, 0x67, 0x2C, 0xF1, 0x29, 0x4B, 0x2C, 0x2E, 0x00, 0x00, 0x00, 0x00, 0x00, 0x00, 0x00, 0x00, 0x00, 0x00, 0x00, 0x00, 0x00, 0x00, 0x00, 0x00, 0x00, 0x00, 0x00, 0x00, 0x00, 0x00, 0x00, 0x00, 0x00, 0x00, 0x00, 0x00, 0x00, 0x00, 0x00, 0x00, 0x00, 0x00, 0x00, 0x00, 0x00, 0x00, 0x00, 0x00, 0x00, 0x00, 0x00, 0x00, 0x00, 0x00, 0x00, 0x00, 0x00, 0x00, 0x00, 0x00, 0x00, 0x00, 0x00, 0x00, 0x00, 0x00, 0x00, 0x00, 0x00, 0x00, 0x00, 0x00, 0x00, 0x00, 0x00, 0x00, 0x00, 0x00, 0x00, 0x00, 0x00, 0x00, 0x00, 0x00, 0x00, 0x00, 0x00, 0x00, 0x00, 0x00, 0x00, 0x00, 0x00, 0x00, 0x00, 0x00, 0x00, 0x00, 0x00, 0x00, 0x00, 0x00, 0x00, 0x00, 0x00, 0x00, 0x00, 0x00, 0x00, 0x00, 0x00, 0x00, 0x00, 0x00, 0x00, 0x00, 0x00, 0x00, 0x00, 0x00, 0x00, 0x00, 0x00, 0x00, 0x00, 0x00, 0x00, 0x00, 0x00, 0x00, 0x00, 0x00, 0x00, 0x00, 0x00, 0x00 };
   0FBE 90 13 00      [24] 2340 	mov	dptr,#_rmodm
   0FC1 74 CF         [12] 2341 	mov	a,#0xCF
   0FC3 F0            [24] 2342 	movx	@dptr,a
   0FC4 90 13 01      [24] 2343 	mov	dptr,#(_rmodm + 0x0001)
   0FC7 74 90         [12] 2344 	mov	a,#0x90
   0FC9 F0            [24] 2345 	movx	@dptr,a
   0FCA 90 13 02      [24] 2346 	mov	dptr,#(_rmodm + 0x0002)
   0FCD 74 85         [12] 2347 	mov	a,#0x85
   0FCF F0            [24] 2348 	movx	@dptr,a
   0FD0 90 13 03      [24] 2349 	mov	dptr,#(_rmodm + 0x0003)
   0FD3 74 19         [12] 2350 	mov	a,#0x19
   0FD5 F0            [24] 2351 	movx	@dptr,a
   0FD6 90 13 04      [24] 2352 	mov	dptr,#(_rmodm + 0x0004)
   0FD9 74 1A         [12] 2353 	mov	a,#0x1A
   0FDB F0            [24] 2354 	movx	@dptr,a
   0FDC 90 13 05      [24] 2355 	mov	dptr,#(_rmodm + 0x0005)
   0FDF 74 43         [12] 2356 	mov	a,#0x43
   0FE1 F0            [24] 2357 	movx	@dptr,a
   0FE2 90 13 06      [24] 2358 	mov	dptr,#(_rmodm + 0x0006)
   0FE5 74 88         [12] 2359 	mov	a,#0x88
   0FE7 F0            [24] 2360 	movx	@dptr,a
   0FE8 90 13 07      [24] 2361 	mov	dptr,#(_rmodm + 0x0007)
   0FEB 74 59         [12] 2362 	mov	a,#0x59
   0FED F0            [24] 2363 	movx	@dptr,a
   0FEE 90 13 08      [24] 2364 	mov	dptr,#(_rmodm + 0x0008)
   0FF1 74 07         [12] 2365 	mov	a,#0x07
   0FF3 F0            [24] 2366 	movx	@dptr,a
   0FF4 90 13 09      [24] 2367 	mov	dptr,#(_rmodm + 0x0009)
   0FF7 74 99         [12] 2368 	mov	a,#0x99
   0FF9 F0            [24] 2369 	movx	@dptr,a
   0FFA 90 13 0A      [24] 2370 	mov	dptr,#(_rmodm + 0x000a)
   0FFD 74 61         [12] 2371 	mov	a,#0x61
   0FFF F0            [24] 2372 	movx	@dptr,a
   1000 90 13 0B      [24] 2373 	mov	dptr,#(_rmodm + 0x000b)
   1003 74 C4         [12] 2374 	mov	a,#0xC4
   1005 F0            [24] 2375 	movx	@dptr,a
   1006 90 13 0C      [24] 2376 	mov	dptr,#(_rmodm + 0x000c)
   1009 74 FD         [12] 2377 	mov	a,#0xFD
   100B F0            [24] 2378 	movx	@dptr,a
   100C 90 13 0D      [24] 2379 	mov	dptr,#(_rmodm + 0x000d)
   100F 74 0B         [12] 2380 	mov	a,#0x0B
   1011 F0            [24] 2381 	movx	@dptr,a
   1012 90 13 0E      [24] 2382 	mov	dptr,#(_rmodm + 0x000e)
   1015 74 20         [12] 2383 	mov	a,#0x20
   1017 F0            [24] 2384 	movx	@dptr,a
   1018 90 13 0F      [24] 2385 	mov	dptr,#(_rmodm + 0x000f)
   101B 74 CD         [12] 2386 	mov	a,#0xCD
   101D F0            [24] 2387 	movx	@dptr,a
   101E 90 13 10      [24] 2388 	mov	dptr,#(_rmodm + 0x0010)
   1021 74 37         [12] 2389 	mov	a,#0x37
   1023 F0            [24] 2390 	movx	@dptr,a
   1024 90 13 11      [24] 2391 	mov	dptr,#(_rmodm + 0x0011)
   1027 74 58         [12] 2392 	mov	a,#0x58
   1029 F0            [24] 2393 	movx	@dptr,a
   102A 90 13 12      [24] 2394 	mov	dptr,#(_rmodm + 0x0012)
   102D 74 46         [12] 2395 	mov	a,#0x46
   102F F0            [24] 2396 	movx	@dptr,a
   1030 90 13 13      [24] 2397 	mov	dptr,#(_rmodm + 0x0013)
   1033 74 D5         [12] 2398 	mov	a,#0xD5
   1035 F0            [24] 2399 	movx	@dptr,a
   1036 90 13 14      [24] 2400 	mov	dptr,#(_rmodm + 0x0014)
   1039 74 E1         [12] 2401 	mov	a,#0xE1
   103B F0            [24] 2402 	movx	@dptr,a
   103C 90 13 15      [24] 2403 	mov	dptr,#(_rmodm + 0x0015)
   103F 74 43         [12] 2404 	mov	a,#0x43
   1041 F0            [24] 2405 	movx	@dptr,a
   1042 90 13 16      [24] 2406 	mov	dptr,#(_rmodm + 0x0016)
   1045 74 F7         [12] 2407 	mov	a,#0xF7
   1047 F0            [24] 2408 	movx	@dptr,a
   1048 90 13 17      [24] 2409 	mov	dptr,#(_rmodm + 0x0017)
   104B 74 41         [12] 2410 	mov	a,#0x41
   104D F0            [24] 2411 	movx	@dptr,a
   104E 90 13 18      [24] 2412 	mov	dptr,#(_rmodm + 0x0018)
   1051 74 79         [12] 2413 	mov	a,#0x79
   1053 F0            [24] 2414 	movx	@dptr,a
   1054 90 13 19      [24] 2415 	mov	dptr,#(_rmodm + 0x0019)
   1057 74 EE         [12] 2416 	mov	a,#0xEE
   1059 F0            [24] 2417 	movx	@dptr,a
   105A 90 13 1A      [24] 2418 	mov	dptr,#(_rmodm + 0x001a)
   105D 74 21         [12] 2419 	mov	a,#0x21
   105F F0            [24] 2420 	movx	@dptr,a
   1060 90 13 1B      [24] 2421 	mov	dptr,#(_rmodm + 0x001b)
   1063 74 D5         [12] 2422 	mov	a,#0xD5
   1065 F0            [24] 2423 	movx	@dptr,a
   1066 90 13 1C      [24] 2424 	mov	dptr,#(_rmodm + 0x001c)
   1069 74 30         [12] 2425 	mov	a,#0x30
   106B F0            [24] 2426 	movx	@dptr,a
   106C 90 13 1D      [24] 2427 	mov	dptr,#(_rmodm + 0x001d)
   106F 74 17         [12] 2428 	mov	a,#0x17
   1071 F0            [24] 2429 	movx	@dptr,a
   1072 90 13 1E      [24] 2430 	mov	dptr,#(_rmodm + 0x001e)
   1075 74 77         [12] 2431 	mov	a,#0x77
   1077 F0            [24] 2432 	movx	@dptr,a
   1078 90 13 1F      [24] 2433 	mov	dptr,#(_rmodm + 0x001f)
   107B 74 71         [12] 2434 	mov	a,#0x71
   107D F0            [24] 2435 	movx	@dptr,a
   107E 90 13 20      [24] 2436 	mov	dptr,#(_rmodm + 0x0020)
   1081 74 C4         [12] 2437 	mov	a,#0xC4
   1083 F0            [24] 2438 	movx	@dptr,a
   1084 90 13 21      [24] 2439 	mov	dptr,#(_rmodm + 0x0021)
   1087 74 A3         [12] 2440 	mov	a,#0xA3
   1089 F0            [24] 2441 	movx	@dptr,a
   108A 90 13 22      [24] 2442 	mov	dptr,#(_rmodm + 0x0022)
   108D 74 95         [12] 2443 	mov	a,#0x95
   108F F0            [24] 2444 	movx	@dptr,a
   1090 90 13 23      [24] 2445 	mov	dptr,#(_rmodm + 0x0023)
   1093 74 8E         [12] 2446 	mov	a,#0x8E
   1095 F0            [24] 2447 	movx	@dptr,a
   1096 90 13 24      [24] 2448 	mov	dptr,#(_rmodm + 0x0024)
   1099 74 B8         [12] 2449 	mov	a,#0xB8
   109B F0            [24] 2450 	movx	@dptr,a
   109C 90 13 25      [24] 2451 	mov	dptr,#(_rmodm + 0x0025)
   109F 74 C3         [12] 2452 	mov	a,#0xC3
   10A1 F0            [24] 2453 	movx	@dptr,a
   10A2 90 13 26      [24] 2454 	mov	dptr,#(_rmodm + 0x0026)
   10A5 74 BA         [12] 2455 	mov	a,#0xBA
   10A7 F0            [24] 2456 	movx	@dptr,a
   10A8 90 13 27      [24] 2457 	mov	dptr,#(_rmodm + 0x0027)
   10AB 74 FA         [12] 2458 	mov	a,#0xFA
   10AD F0            [24] 2459 	movx	@dptr,a
   10AE 90 13 28      [24] 2460 	mov	dptr,#(_rmodm + 0x0028)
   10B1 74 B9         [12] 2461 	mov	a,#0xB9
   10B3 F0            [24] 2462 	movx	@dptr,a
   10B4 90 13 29      [24] 2463 	mov	dptr,#(_rmodm + 0x0029)
   10B7 74 1B         [12] 2464 	mov	a,#0x1B
   10B9 F0            [24] 2465 	movx	@dptr,a
   10BA 90 13 2A      [24] 2466 	mov	dptr,#(_rmodm + 0x002a)
   10BD 74 52         [12] 2467 	mov	a,#0x52
   10BF F0            [24] 2468 	movx	@dptr,a
   10C0 90 13 2B      [24] 2469 	mov	dptr,#(_rmodm + 0x002b)
   10C3 74 6C         [12] 2470 	mov	a,#0x6C
   10C5 F0            [24] 2471 	movx	@dptr,a
   10C6 90 13 2C      [24] 2472 	mov	dptr,#(_rmodm + 0x002c)
   10C9 74 BD         [12] 2473 	mov	a,#0xBD
   10CB F0            [24] 2474 	movx	@dptr,a
   10CC 90 13 2D      [24] 2475 	mov	dptr,#(_rmodm + 0x002d)
   10CF 74 E0         [12] 2476 	mov	a,#0xE0
   10D1 F0            [24] 2477 	movx	@dptr,a
   10D2 90 13 2E      [24] 2478 	mov	dptr,#(_rmodm + 0x002e)
   10D5 74 88         [12] 2479 	mov	a,#0x88
   10D7 F0            [24] 2480 	movx	@dptr,a
   10D8 90 13 2F      [24] 2481 	mov	dptr,#(_rmodm + 0x002f)
   10DB 74 23         [12] 2482 	mov	a,#0x23
   10DD F0            [24] 2483 	movx	@dptr,a
   10DE 90 13 30      [24] 2484 	mov	dptr,#(_rmodm + 0x0030)
   10E1 74 DA         [12] 2485 	mov	a,#0xDA
   10E3 F0            [24] 2486 	movx	@dptr,a
   10E4 90 13 31      [24] 2487 	mov	dptr,#(_rmodm + 0x0031)
   10E7 74 68         [12] 2488 	mov	a,#0x68
   10E9 F0            [24] 2489 	movx	@dptr,a
   10EA 90 13 32      [24] 2490 	mov	dptr,#(_rmodm + 0x0032)
   10ED 74 8F         [12] 2491 	mov	a,#0x8F
   10EF F0            [24] 2492 	movx	@dptr,a
   10F0 90 13 33      [24] 2493 	mov	dptr,#(_rmodm + 0x0033)
   10F3 74 1E         [12] 2494 	mov	a,#0x1E
   10F5 F0            [24] 2495 	movx	@dptr,a
   10F6 90 13 34      [24] 2496 	mov	dptr,#(_rmodm + 0x0034)
   10F9 74 4A         [12] 2497 	mov	a,#0x4A
   10FB F0            [24] 2498 	movx	@dptr,a
   10FC 90 13 35      [24] 2499 	mov	dptr,#(_rmodm + 0x0035)
   10FF 74 14         [12] 2500 	mov	a,#0x14
   1101 F0            [24] 2501 	movx	@dptr,a
   1102 90 13 36      [24] 2502 	mov	dptr,#(_rmodm + 0x0036)
   1105 74 76         [12] 2503 	mov	a,#0x76
   1107 F0            [24] 2504 	movx	@dptr,a
   1108 90 13 37      [24] 2505 	mov	dptr,#(_rmodm + 0x0037)
   110B 74 80         [12] 2506 	mov	a,#0x80
   110D F0            [24] 2507 	movx	@dptr,a
   110E 90 13 38      [24] 2508 	mov	dptr,#(_rmodm + 0x0038)
   1111 74 56         [12] 2509 	mov	a,#0x56
   1113 F0            [24] 2510 	movx	@dptr,a
   1114 90 13 39      [24] 2511 	mov	dptr,#(_rmodm + 0x0039)
   1117 74 E1         [12] 2512 	mov	a,#0xE1
   1119 F0            [24] 2513 	movx	@dptr,a
   111A 90 13 3A      [24] 2514 	mov	dptr,#(_rmodm + 0x003a)
   111D 74 AF         [12] 2515 	mov	a,#0xAF
   111F F0            [24] 2516 	movx	@dptr,a
   1120 90 13 3B      [24] 2517 	mov	dptr,#(_rmodm + 0x003b)
   1123 74 E2         [12] 2518 	mov	a,#0xE2
   1125 F0            [24] 2519 	movx	@dptr,a
   1126 90 13 3C      [24] 2520 	mov	dptr,#(_rmodm + 0x003c)
   1129 74 CC         [12] 2521 	mov	a,#0xCC
   112B F0            [24] 2522 	movx	@dptr,a
   112C 90 13 3D      [24] 2523 	mov	dptr,#(_rmodm + 0x003d)
   112F 74 66         [12] 2524 	mov	a,#0x66
   1131 F0            [24] 2525 	movx	@dptr,a
   1132 90 13 3E      [24] 2526 	mov	dptr,#(_rmodm + 0x003e)
   1135 74 C3         [12] 2527 	mov	a,#0xC3
   1137 F0            [24] 2528 	movx	@dptr,a
   1138 90 13 3F      [24] 2529 	mov	dptr,#(_rmodm + 0x003f)
   113B 74 F6         [12] 2530 	mov	a,#0xF6
   113D F0            [24] 2531 	movx	@dptr,a
   113E 90 13 40      [24] 2532 	mov	dptr,#(_rmodm + 0x0040)
   1141 74 97         [12] 2533 	mov	a,#0x97
   1143 F0            [24] 2534 	movx	@dptr,a
   1144 90 13 41      [24] 2535 	mov	dptr,#(_rmodm + 0x0041)
   1147 74 1B         [12] 2536 	mov	a,#0x1B
   1149 F0            [24] 2537 	movx	@dptr,a
   114A 90 13 42      [24] 2538 	mov	dptr,#(_rmodm + 0x0042)
   114D 74 E5         [12] 2539 	mov	a,#0xE5
   114F F0            [24] 2540 	movx	@dptr,a
   1150 90 13 43      [24] 2541 	mov	dptr,#(_rmodm + 0x0043)
   1153 74 30         [12] 2542 	mov	a,#0x30
   1155 F0            [24] 2543 	movx	@dptr,a
   1156 90 13 44      [24] 2544 	mov	dptr,#(_rmodm + 0x0044)
   1159 74 4F         [12] 2545 	mov	a,#0x4F
   115B F0            [24] 2546 	movx	@dptr,a
   115C 90 13 45      [24] 2547 	mov	dptr,#(_rmodm + 0x0045)
   115F 74 E1         [12] 2548 	mov	a,#0xE1
   1161 F0            [24] 2549 	movx	@dptr,a
   1162 90 13 46      [24] 2550 	mov	dptr,#(_rmodm + 0x0046)
   1165 74 45         [12] 2551 	mov	a,#0x45
   1167 F0            [24] 2552 	movx	@dptr,a
   1168 90 13 47      [24] 2553 	mov	dptr,#(_rmodm + 0x0047)
   116B 74 A9         [12] 2554 	mov	a,#0xA9
   116D F0            [24] 2555 	movx	@dptr,a
   116E 90 13 48      [24] 2556 	mov	dptr,#(_rmodm + 0x0048)
   1171 74 DB         [12] 2557 	mov	a,#0xDB
   1173 F0            [24] 2558 	movx	@dptr,a
   1174 90 13 49      [24] 2559 	mov	dptr,#(_rmodm + 0x0049)
   1177 74 83         [12] 2560 	mov	a,#0x83
   1179 F0            [24] 2561 	movx	@dptr,a
   117A 90 13 4A      [24] 2562 	mov	dptr,#(_rmodm + 0x004a)
   117D 74 71         [12] 2563 	mov	a,#0x71
   117F F0            [24] 2564 	movx	@dptr,a
   1180 90 13 4B      [24] 2565 	mov	dptr,#(_rmodm + 0x004b)
   1183 74 CA         [12] 2566 	mov	a,#0xCA
   1185 F0            [24] 2567 	movx	@dptr,a
   1186 90 13 4C      [24] 2568 	mov	dptr,#(_rmodm + 0x004c)
   1189 74 7B         [12] 2569 	mov	a,#0x7B
   118B F0            [24] 2570 	movx	@dptr,a
   118C 90 13 4D      [24] 2571 	mov	dptr,#(_rmodm + 0x004d)
   118F 74 1F         [12] 2572 	mov	a,#0x1F
   1191 F0            [24] 2573 	movx	@dptr,a
   1192 90 13 4E      [24] 2574 	mov	dptr,#(_rmodm + 0x004e)
   1195 74 55         [12] 2575 	mov	a,#0x55
   1197 F0            [24] 2576 	movx	@dptr,a
   1198 90 13 4F      [24] 2577 	mov	dptr,#(_rmodm + 0x004f)
   119B 74 D2         [12] 2578 	mov	a,#0xD2
   119D F0            [24] 2579 	movx	@dptr,a
   119E 90 13 50      [24] 2580 	mov	dptr,#(_rmodm + 0x0050)
   11A1 74 13         [12] 2581 	mov	a,#0x13
   11A3 F0            [24] 2582 	movx	@dptr,a
   11A4 90 13 51      [24] 2583 	mov	dptr,#(_rmodm + 0x0051)
   11A7 74 A7         [12] 2584 	mov	a,#0xA7
   11A9 F0            [24] 2585 	movx	@dptr,a
   11AA 90 13 52      [24] 2586 	mov	dptr,#(_rmodm + 0x0052)
   11AD 74 5F         [12] 2587 	mov	a,#0x5F
   11AF F0            [24] 2588 	movx	@dptr,a
   11B0 90 13 53      [24] 2589 	mov	dptr,#(_rmodm + 0x0053)
   11B3 74 B2         [12] 2590 	mov	a,#0xB2
   11B5 F0            [24] 2591 	movx	@dptr,a
   11B6 90 13 54      [24] 2592 	mov	dptr,#(_rmodm + 0x0054)
   11B9 74 76         [12] 2593 	mov	a,#0x76
   11BB F0            [24] 2594 	movx	@dptr,a
   11BC 90 13 55      [24] 2595 	mov	dptr,#(_rmodm + 0x0055)
   11BF 74 75         [12] 2596 	mov	a,#0x75
   11C1 F0            [24] 2597 	movx	@dptr,a
   11C2 90 13 56      [24] 2598 	mov	dptr,#(_rmodm + 0x0056)
   11C5 74 FD         [12] 2599 	mov	a,#0xFD
   11C7 F0            [24] 2600 	movx	@dptr,a
   11C8 90 13 57      [24] 2601 	mov	dptr,#(_rmodm + 0x0057)
   11CB 74 D8         [12] 2602 	mov	a,#0xD8
   11CD F0            [24] 2603 	movx	@dptr,a
   11CE 90 13 58      [24] 2604 	mov	dptr,#(_rmodm + 0x0058)
   11D1 74 C7         [12] 2605 	mov	a,#0xC7
   11D3 F0            [24] 2606 	movx	@dptr,a
   11D4 90 13 59      [24] 2607 	mov	dptr,#(_rmodm + 0x0059)
   11D7 74 AB         [12] 2608 	mov	a,#0xAB
   11D9 F0            [24] 2609 	movx	@dptr,a
   11DA 90 13 5A      [24] 2610 	mov	dptr,#(_rmodm + 0x005a)
   11DD 74 D1         [12] 2611 	mov	a,#0xD1
   11DF F0            [24] 2612 	movx	@dptr,a
   11E0 90 13 5B      [24] 2613 	mov	dptr,#(_rmodm + 0x005b)
   11E3 74 B0         [12] 2614 	mov	a,#0xB0
   11E5 F0            [24] 2615 	movx	@dptr,a
   11E6 90 13 5C      [24] 2616 	mov	dptr,#(_rmodm + 0x005c)
   11E9 74 4D         [12] 2617 	mov	a,#0x4D
   11EB F0            [24] 2618 	movx	@dptr,a
   11EC 90 13 5D      [24] 2619 	mov	dptr,#(_rmodm + 0x005d)
   11EF 74 69         [12] 2620 	mov	a,#0x69
   11F1 F0            [24] 2621 	movx	@dptr,a
   11F2 90 13 5E      [24] 2622 	mov	dptr,#(_rmodm + 0x005e)
   11F5 74 54         [12] 2623 	mov	a,#0x54
   11F7 F0            [24] 2624 	movx	@dptr,a
   11F8 90 13 5F      [24] 2625 	mov	dptr,#(_rmodm + 0x005f)
   11FB 74 D6         [12] 2626 	mov	a,#0xD6
   11FD F0            [24] 2627 	movx	@dptr,a
   11FE 90 13 60      [24] 2628 	mov	dptr,#(_rmodm + 0x0060)
   1201 74 FE         [12] 2629 	mov	a,#0xFE
   1203 F0            [24] 2630 	movx	@dptr,a
   1204 90 13 61      [24] 2631 	mov	dptr,#(_rmodm + 0x0061)
   1207 74 DE         [12] 2632 	mov	a,#0xDE
   1209 F0            [24] 2633 	movx	@dptr,a
   120A 90 13 62      [24] 2634 	mov	dptr,#(_rmodm + 0x0062)
   120D 74 F8         [12] 2635 	mov	a,#0xF8
   120F F0            [24] 2636 	movx	@dptr,a
   1210 90 13 63      [24] 2637 	mov	dptr,#(_rmodm + 0x0063)
   1213 74 06         [12] 2638 	mov	a,#0x06
   1215 F0            [24] 2639 	movx	@dptr,a
   1216 90 13 64      [24] 2640 	mov	dptr,#(_rmodm + 0x0064)
   1219 74 7A         [12] 2641 	mov	a,#0x7A
   121B F0            [24] 2642 	movx	@dptr,a
   121C 90 13 65      [24] 2643 	mov	dptr,#(_rmodm + 0x0065)
   121F 74 FE         [12] 2644 	mov	a,#0xFE
   1221 F0            [24] 2645 	movx	@dptr,a
   1222 90 13 66      [24] 2646 	mov	dptr,#(_rmodm + 0x0066)
   1225 74 66         [12] 2647 	mov	a,#0x66
   1227 F0            [24] 2648 	movx	@dptr,a
   1228 90 13 67      [24] 2649 	mov	dptr,#(_rmodm + 0x0067)
   122B 74 18         [12] 2650 	mov	a,#0x18
   122D F0            [24] 2651 	movx	@dptr,a
   122E 90 13 68      [24] 2652 	mov	dptr,#(_rmodm + 0x0068)
   1231 74 01         [12] 2653 	mov	a,#0x01
   1233 F0            [24] 2654 	movx	@dptr,a
   1234 90 13 69      [24] 2655 	mov	dptr,#(_rmodm + 0x0069)
   1237 74 07         [12] 2656 	mov	a,#0x07
   1239 F0            [24] 2657 	movx	@dptr,a
   123A 90 13 6A      [24] 2658 	mov	dptr,#(_rmodm + 0x006a)
   123D 74 65         [12] 2659 	mov	a,#0x65
   123F F0            [24] 2660 	movx	@dptr,a
   1240 90 13 6B      [24] 2661 	mov	dptr,#(_rmodm + 0x006b)
   1243 74 E6         [12] 2662 	mov	a,#0xE6
   1245 F0            [24] 2663 	movx	@dptr,a
   1246 90 13 6C      [24] 2664 	mov	dptr,#(_rmodm + 0x006c)
   1249 74 92         [12] 2665 	mov	a,#0x92
   124B F0            [24] 2666 	movx	@dptr,a
   124C 90 13 6D      [24] 2667 	mov	dptr,#(_rmodm + 0x006d)
   124F 74 6D         [12] 2668 	mov	a,#0x6D
   1251 F0            [24] 2669 	movx	@dptr,a
   1252 90 13 6E      [24] 2670 	mov	dptr,#(_rmodm + 0x006e)
   1255 74 78         [12] 2671 	mov	a,#0x78
   1257 F0            [24] 2672 	movx	@dptr,a
   1258 90 13 6F      [24] 2673 	mov	dptr,#(_rmodm + 0x006f)
   125B 74 97         [12] 2674 	mov	a,#0x97
   125D F0            [24] 2675 	movx	@dptr,a
   125E 90 13 70      [24] 2676 	mov	dptr,#(_rmodm + 0x0070)
   1261 74 F1         [12] 2677 	mov	a,#0xF1
   1263 F0            [24] 2678 	movx	@dptr,a
   1264 90 13 71      [24] 2679 	mov	dptr,#(_rmodm + 0x0071)
   1267 74 BA         [12] 2680 	mov	a,#0xBA
   1269 F0            [24] 2681 	movx	@dptr,a
   126A 90 13 72      [24] 2682 	mov	dptr,#(_rmodm + 0x0072)
   126D 74 4F         [12] 2683 	mov	a,#0x4F
   126F F0            [24] 2684 	movx	@dptr,a
   1270 90 13 73      [24] 2685 	mov	dptr,#(_rmodm + 0x0073)
   1273 74 30         [12] 2686 	mov	a,#0x30
   1275 F0            [24] 2687 	movx	@dptr,a
   1276 90 13 74      [24] 2688 	mov	dptr,#(_rmodm + 0x0074)
   1279 74 26         [12] 2689 	mov	a,#0x26
   127B F0            [24] 2690 	movx	@dptr,a
   127C 90 13 75      [24] 2691 	mov	dptr,#(_rmodm + 0x0075)
   127F 74 C2         [12] 2692 	mov	a,#0xC2
   1281 F0            [24] 2693 	movx	@dptr,a
   1282 90 13 76      [24] 2694 	mov	dptr,#(_rmodm + 0x0076)
   1285 74 5A         [12] 2695 	mov	a,#0x5A
   1287 F0            [24] 2696 	movx	@dptr,a
   1288 90 13 77      [24] 2697 	mov	dptr,#(_rmodm + 0x0077)
   128B 74 C9         [12] 2698 	mov	a,#0xC9
   128D F0            [24] 2699 	movx	@dptr,a
   128E 90 13 78      [24] 2700 	mov	dptr,#(_rmodm + 0x0078)
   1291 74 D3         [12] 2701 	mov	a,#0xD3
   1293 F0            [24] 2702 	movx	@dptr,a
   1294 90 13 79      [24] 2703 	mov	dptr,#(_rmodm + 0x0079)
   1297 74 67         [12] 2704 	mov	a,#0x67
   1299 F0            [24] 2705 	movx	@dptr,a
   129A 90 13 7A      [24] 2706 	mov	dptr,#(_rmodm + 0x007a)
   129D 74 2C         [12] 2707 	mov	a,#0x2C
   129F F0            [24] 2708 	movx	@dptr,a
   12A0 90 13 7B      [24] 2709 	mov	dptr,#(_rmodm + 0x007b)
   12A3 74 F1         [12] 2710 	mov	a,#0xF1
   12A5 F0            [24] 2711 	movx	@dptr,a
   12A6 90 13 7C      [24] 2712 	mov	dptr,#(_rmodm + 0x007c)
   12A9 74 29         [12] 2713 	mov	a,#0x29
   12AB F0            [24] 2714 	movx	@dptr,a
   12AC 90 13 7D      [24] 2715 	mov	dptr,#(_rmodm + 0x007d)
   12AF 74 4B         [12] 2716 	mov	a,#0x4B
   12B1 F0            [24] 2717 	movx	@dptr,a
   12B2 90 13 7E      [24] 2718 	mov	dptr,#(_rmodm + 0x007e)
   12B5 74 2C         [12] 2719 	mov	a,#0x2C
   12B7 F0            [24] 2720 	movx	@dptr,a
   12B8 90 13 7F      [24] 2721 	mov	dptr,#(_rmodm + 0x007f)
   12BB 74 2E         [12] 2722 	mov	a,#0x2E
   12BD F0            [24] 2723 	movx	@dptr,a
   12BE 90 13 80      [24] 2724 	mov	dptr,#(_rmodm + 0x0080)
   12C1 E4            [12] 2725 	clr	a
   12C2 F0            [24] 2726 	movx	@dptr,a
   12C3 90 13 81      [24] 2727 	mov	dptr,#(_rmodm + 0x0081)
   12C6 F0            [24] 2728 	movx	@dptr,a
   12C7 90 13 82      [24] 2729 	mov	dptr,#(_rmodm + 0x0082)
   12CA F0            [24] 2730 	movx	@dptr,a
   12CB 90 13 83      [24] 2731 	mov	dptr,#(_rmodm + 0x0083)
   12CE F0            [24] 2732 	movx	@dptr,a
   12CF 90 13 84      [24] 2733 	mov	dptr,#(_rmodm + 0x0084)
   12D2 E4            [12] 2734 	clr	a
   12D3 F0            [24] 2735 	movx	@dptr,a
   12D4 90 13 85      [24] 2736 	mov	dptr,#(_rmodm + 0x0085)
   12D7 F0            [24] 2737 	movx	@dptr,a
   12D8 90 13 86      [24] 2738 	mov	dptr,#(_rmodm + 0x0086)
   12DB F0            [24] 2739 	movx	@dptr,a
   12DC 90 13 87      [24] 2740 	mov	dptr,#(_rmodm + 0x0087)
   12DF F0            [24] 2741 	movx	@dptr,a
   12E0 90 13 88      [24] 2742 	mov	dptr,#(_rmodm + 0x0088)
   12E3 E4            [12] 2743 	clr	a
   12E4 F0            [24] 2744 	movx	@dptr,a
   12E5 90 13 89      [24] 2745 	mov	dptr,#(_rmodm + 0x0089)
   12E8 F0            [24] 2746 	movx	@dptr,a
   12E9 90 13 8A      [24] 2747 	mov	dptr,#(_rmodm + 0x008a)
   12EC F0            [24] 2748 	movx	@dptr,a
   12ED 90 13 8B      [24] 2749 	mov	dptr,#(_rmodm + 0x008b)
   12F0 F0            [24] 2750 	movx	@dptr,a
   12F1 90 13 8C      [24] 2751 	mov	dptr,#(_rmodm + 0x008c)
   12F4 E4            [12] 2752 	clr	a
   12F5 F0            [24] 2753 	movx	@dptr,a
   12F6 90 13 8D      [24] 2754 	mov	dptr,#(_rmodm + 0x008d)
   12F9 F0            [24] 2755 	movx	@dptr,a
   12FA 90 13 8E      [24] 2756 	mov	dptr,#(_rmodm + 0x008e)
   12FD F0            [24] 2757 	movx	@dptr,a
   12FE 90 13 8F      [24] 2758 	mov	dptr,#(_rmodm + 0x008f)
   1301 F0            [24] 2759 	movx	@dptr,a
   1302 90 13 90      [24] 2760 	mov	dptr,#(_rmodm + 0x0090)
   1305 E4            [12] 2761 	clr	a
   1306 F0            [24] 2762 	movx	@dptr,a
   1307 90 13 91      [24] 2763 	mov	dptr,#(_rmodm + 0x0091)
   130A F0            [24] 2764 	movx	@dptr,a
   130B 90 13 92      [24] 2765 	mov	dptr,#(_rmodm + 0x0092)
   130E F0            [24] 2766 	movx	@dptr,a
   130F 90 13 93      [24] 2767 	mov	dptr,#(_rmodm + 0x0093)
   1312 F0            [24] 2768 	movx	@dptr,a
   1313 90 13 94      [24] 2769 	mov	dptr,#(_rmodm + 0x0094)
   1316 E4            [12] 2770 	clr	a
   1317 F0            [24] 2771 	movx	@dptr,a
   1318 90 13 95      [24] 2772 	mov	dptr,#(_rmodm + 0x0095)
   131B F0            [24] 2773 	movx	@dptr,a
   131C 90 13 96      [24] 2774 	mov	dptr,#(_rmodm + 0x0096)
   131F F0            [24] 2775 	movx	@dptr,a
   1320 90 13 97      [24] 2776 	mov	dptr,#(_rmodm + 0x0097)
   1323 F0            [24] 2777 	movx	@dptr,a
   1324 90 13 98      [24] 2778 	mov	dptr,#(_rmodm + 0x0098)
   1327 E4            [12] 2779 	clr	a
   1328 F0            [24] 2780 	movx	@dptr,a
   1329 90 13 99      [24] 2781 	mov	dptr,#(_rmodm + 0x0099)
   132C F0            [24] 2782 	movx	@dptr,a
   132D 90 13 9A      [24] 2783 	mov	dptr,#(_rmodm + 0x009a)
   1330 F0            [24] 2784 	movx	@dptr,a
   1331 90 13 9B      [24] 2785 	mov	dptr,#(_rmodm + 0x009b)
   1334 F0            [24] 2786 	movx	@dptr,a
   1335 90 13 9C      [24] 2787 	mov	dptr,#(_rmodm + 0x009c)
   1338 E4            [12] 2788 	clr	a
   1339 F0            [24] 2789 	movx	@dptr,a
   133A 90 13 9D      [24] 2790 	mov	dptr,#(_rmodm + 0x009d)
   133D F0            [24] 2791 	movx	@dptr,a
   133E 90 13 9E      [24] 2792 	mov	dptr,#(_rmodm + 0x009e)
   1341 F0            [24] 2793 	movx	@dptr,a
   1342 90 13 9F      [24] 2794 	mov	dptr,#(_rmodm + 0x009f)
   1345 F0            [24] 2795 	movx	@dptr,a
   1346 90 13 A0      [24] 2796 	mov	dptr,#(_rmodm + 0x00a0)
   1349 E4            [12] 2797 	clr	a
   134A F0            [24] 2798 	movx	@dptr,a
   134B 90 13 A1      [24] 2799 	mov	dptr,#(_rmodm + 0x00a1)
   134E F0            [24] 2800 	movx	@dptr,a
   134F 90 13 A2      [24] 2801 	mov	dptr,#(_rmodm + 0x00a2)
   1352 F0            [24] 2802 	movx	@dptr,a
   1353 90 13 A3      [24] 2803 	mov	dptr,#(_rmodm + 0x00a3)
   1356 F0            [24] 2804 	movx	@dptr,a
   1357 90 13 A4      [24] 2805 	mov	dptr,#(_rmodm + 0x00a4)
   135A E4            [12] 2806 	clr	a
   135B F0            [24] 2807 	movx	@dptr,a
   135C 90 13 A5      [24] 2808 	mov	dptr,#(_rmodm + 0x00a5)
   135F F0            [24] 2809 	movx	@dptr,a
   1360 90 13 A6      [24] 2810 	mov	dptr,#(_rmodm + 0x00a6)
   1363 F0            [24] 2811 	movx	@dptr,a
   1364 90 13 A7      [24] 2812 	mov	dptr,#(_rmodm + 0x00a7)
   1367 F0            [24] 2813 	movx	@dptr,a
   1368 90 13 A8      [24] 2814 	mov	dptr,#(_rmodm + 0x00a8)
   136B E4            [12] 2815 	clr	a
   136C F0            [24] 2816 	movx	@dptr,a
   136D 90 13 A9      [24] 2817 	mov	dptr,#(_rmodm + 0x00a9)
   1370 F0            [24] 2818 	movx	@dptr,a
   1371 90 13 AA      [24] 2819 	mov	dptr,#(_rmodm + 0x00aa)
   1374 F0            [24] 2820 	movx	@dptr,a
   1375 90 13 AB      [24] 2821 	mov	dptr,#(_rmodm + 0x00ab)
   1378 F0            [24] 2822 	movx	@dptr,a
   1379 90 13 AC      [24] 2823 	mov	dptr,#(_rmodm + 0x00ac)
   137C E4            [12] 2824 	clr	a
   137D F0            [24] 2825 	movx	@dptr,a
   137E 90 13 AD      [24] 2826 	mov	dptr,#(_rmodm + 0x00ad)
   1381 F0            [24] 2827 	movx	@dptr,a
   1382 90 13 AE      [24] 2828 	mov	dptr,#(_rmodm + 0x00ae)
   1385 F0            [24] 2829 	movx	@dptr,a
   1386 90 13 AF      [24] 2830 	mov	dptr,#(_rmodm + 0x00af)
   1389 F0            [24] 2831 	movx	@dptr,a
   138A 90 13 B0      [24] 2832 	mov	dptr,#(_rmodm + 0x00b0)
   138D E4            [12] 2833 	clr	a
   138E F0            [24] 2834 	movx	@dptr,a
   138F 90 13 B1      [24] 2835 	mov	dptr,#(_rmodm + 0x00b1)
   1392 F0            [24] 2836 	movx	@dptr,a
   1393 90 13 B2      [24] 2837 	mov	dptr,#(_rmodm + 0x00b2)
   1396 F0            [24] 2838 	movx	@dptr,a
   1397 90 13 B3      [24] 2839 	mov	dptr,#(_rmodm + 0x00b3)
   139A F0            [24] 2840 	movx	@dptr,a
   139B 90 13 B4      [24] 2841 	mov	dptr,#(_rmodm + 0x00b4)
   139E E4            [12] 2842 	clr	a
   139F F0            [24] 2843 	movx	@dptr,a
   13A0 90 13 B5      [24] 2844 	mov	dptr,#(_rmodm + 0x00b5)
   13A3 F0            [24] 2845 	movx	@dptr,a
   13A4 90 13 B6      [24] 2846 	mov	dptr,#(_rmodm + 0x00b6)
   13A7 F0            [24] 2847 	movx	@dptr,a
   13A8 90 13 B7      [24] 2848 	mov	dptr,#(_rmodm + 0x00b7)
   13AB F0            [24] 2849 	movx	@dptr,a
   13AC 90 13 B8      [24] 2850 	mov	dptr,#(_rmodm + 0x00b8)
   13AF E4            [12] 2851 	clr	a
   13B0 F0            [24] 2852 	movx	@dptr,a
   13B1 90 13 B9      [24] 2853 	mov	dptr,#(_rmodm + 0x00b9)
   13B4 F0            [24] 2854 	movx	@dptr,a
   13B5 90 13 BA      [24] 2855 	mov	dptr,#(_rmodm + 0x00ba)
   13B8 F0            [24] 2856 	movx	@dptr,a
   13B9 90 13 BB      [24] 2857 	mov	dptr,#(_rmodm + 0x00bb)
   13BC F0            [24] 2858 	movx	@dptr,a
   13BD 90 13 BC      [24] 2859 	mov	dptr,#(_rmodm + 0x00bc)
   13C0 E4            [12] 2860 	clr	a
   13C1 F0            [24] 2861 	movx	@dptr,a
   13C2 90 13 BD      [24] 2862 	mov	dptr,#(_rmodm + 0x00bd)
   13C5 F0            [24] 2863 	movx	@dptr,a
   13C6 90 13 BE      [24] 2864 	mov	dptr,#(_rmodm + 0x00be)
   13C9 F0            [24] 2865 	movx	@dptr,a
   13CA 90 13 BF      [24] 2866 	mov	dptr,#(_rmodm + 0x00bf)
   13CD F0            [24] 2867 	movx	@dptr,a
   13CE 90 13 C0      [24] 2868 	mov	dptr,#(_rmodm + 0x00c0)
   13D1 E4            [12] 2869 	clr	a
   13D2 F0            [24] 2870 	movx	@dptr,a
   13D3 90 13 C1      [24] 2871 	mov	dptr,#(_rmodm + 0x00c1)
   13D6 F0            [24] 2872 	movx	@dptr,a
   13D7 90 13 C2      [24] 2873 	mov	dptr,#(_rmodm + 0x00c2)
   13DA F0            [24] 2874 	movx	@dptr,a
   13DB 90 13 C3      [24] 2875 	mov	dptr,#(_rmodm + 0x00c3)
   13DE F0            [24] 2876 	movx	@dptr,a
   13DF 90 13 C4      [24] 2877 	mov	dptr,#(_rmodm + 0x00c4)
   13E2 E4            [12] 2878 	clr	a
   13E3 F0            [24] 2879 	movx	@dptr,a
   13E4 90 13 C5      [24] 2880 	mov	dptr,#(_rmodm + 0x00c5)
   13E7 F0            [24] 2881 	movx	@dptr,a
   13E8 90 13 C6      [24] 2882 	mov	dptr,#(_rmodm + 0x00c6)
   13EB F0            [24] 2883 	movx	@dptr,a
   13EC 90 13 C7      [24] 2884 	mov	dptr,#(_rmodm + 0x00c7)
   13EF F0            [24] 2885 	movx	@dptr,a
   13F0 90 13 C8      [24] 2886 	mov	dptr,#(_rmodm + 0x00c8)
   13F3 E4            [12] 2887 	clr	a
   13F4 F0            [24] 2888 	movx	@dptr,a
   13F5 90 13 C9      [24] 2889 	mov	dptr,#(_rmodm + 0x00c9)
   13F8 F0            [24] 2890 	movx	@dptr,a
   13F9 90 13 CA      [24] 2891 	mov	dptr,#(_rmodm + 0x00ca)
   13FC F0            [24] 2892 	movx	@dptr,a
   13FD 90 13 CB      [24] 2893 	mov	dptr,#(_rmodm + 0x00cb)
   1400 F0            [24] 2894 	movx	@dptr,a
   1401 90 13 CC      [24] 2895 	mov	dptr,#(_rmodm + 0x00cc)
   1404 E4            [12] 2896 	clr	a
   1405 F0            [24] 2897 	movx	@dptr,a
   1406 90 13 CD      [24] 2898 	mov	dptr,#(_rmodm + 0x00cd)
   1409 F0            [24] 2899 	movx	@dptr,a
   140A 90 13 CE      [24] 2900 	mov	dptr,#(_rmodm + 0x00ce)
   140D F0            [24] 2901 	movx	@dptr,a
   140E 90 13 CF      [24] 2902 	mov	dptr,#(_rmodm + 0x00cf)
   1411 F0            [24] 2903 	movx	@dptr,a
   1412 90 13 D0      [24] 2904 	mov	dptr,#(_rmodm + 0x00d0)
   1415 E4            [12] 2905 	clr	a
   1416 F0            [24] 2906 	movx	@dptr,a
   1417 90 13 D1      [24] 2907 	mov	dptr,#(_rmodm + 0x00d1)
   141A F0            [24] 2908 	movx	@dptr,a
   141B 90 13 D2      [24] 2909 	mov	dptr,#(_rmodm + 0x00d2)
   141E F0            [24] 2910 	movx	@dptr,a
   141F 90 13 D3      [24] 2911 	mov	dptr,#(_rmodm + 0x00d3)
   1422 F0            [24] 2912 	movx	@dptr,a
   1423 90 13 D4      [24] 2913 	mov	dptr,#(_rmodm + 0x00d4)
   1426 E4            [12] 2914 	clr	a
   1427 F0            [24] 2915 	movx	@dptr,a
   1428 90 13 D5      [24] 2916 	mov	dptr,#(_rmodm + 0x00d5)
   142B F0            [24] 2917 	movx	@dptr,a
   142C 90 13 D6      [24] 2918 	mov	dptr,#(_rmodm + 0x00d6)
   142F F0            [24] 2919 	movx	@dptr,a
   1430 90 13 D7      [24] 2920 	mov	dptr,#(_rmodm + 0x00d7)
   1433 F0            [24] 2921 	movx	@dptr,a
   1434 90 13 D8      [24] 2922 	mov	dptr,#(_rmodm + 0x00d8)
   1437 E4            [12] 2923 	clr	a
   1438 F0            [24] 2924 	movx	@dptr,a
   1439 90 13 D9      [24] 2925 	mov	dptr,#(_rmodm + 0x00d9)
   143C F0            [24] 2926 	movx	@dptr,a
   143D 90 13 DA      [24] 2927 	mov	dptr,#(_rmodm + 0x00da)
   1440 F0            [24] 2928 	movx	@dptr,a
   1441 90 13 DB      [24] 2929 	mov	dptr,#(_rmodm + 0x00db)
   1444 F0            [24] 2930 	movx	@dptr,a
   1445 90 13 DC      [24] 2931 	mov	dptr,#(_rmodm + 0x00dc)
   1448 E4            [12] 2932 	clr	a
   1449 F0            [24] 2933 	movx	@dptr,a
   144A 90 13 DD      [24] 2934 	mov	dptr,#(_rmodm + 0x00dd)
   144D F0            [24] 2935 	movx	@dptr,a
   144E 90 13 DE      [24] 2936 	mov	dptr,#(_rmodm + 0x00de)
   1451 F0            [24] 2937 	movx	@dptr,a
   1452 90 13 DF      [24] 2938 	mov	dptr,#(_rmodm + 0x00df)
   1455 F0            [24] 2939 	movx	@dptr,a
   1456 90 13 E0      [24] 2940 	mov	dptr,#(_rmodm + 0x00e0)
   1459 E4            [12] 2941 	clr	a
   145A F0            [24] 2942 	movx	@dptr,a
   145B 90 13 E1      [24] 2943 	mov	dptr,#(_rmodm + 0x00e1)
   145E F0            [24] 2944 	movx	@dptr,a
   145F 90 13 E2      [24] 2945 	mov	dptr,#(_rmodm + 0x00e2)
   1462 F0            [24] 2946 	movx	@dptr,a
   1463 90 13 E3      [24] 2947 	mov	dptr,#(_rmodm + 0x00e3)
   1466 F0            [24] 2948 	movx	@dptr,a
   1467 90 13 E4      [24] 2949 	mov	dptr,#(_rmodm + 0x00e4)
   146A E4            [12] 2950 	clr	a
   146B F0            [24] 2951 	movx	@dptr,a
   146C 90 13 E5      [24] 2952 	mov	dptr,#(_rmodm + 0x00e5)
   146F F0            [24] 2953 	movx	@dptr,a
   1470 90 13 E6      [24] 2954 	mov	dptr,#(_rmodm + 0x00e6)
   1473 F0            [24] 2955 	movx	@dptr,a
   1474 90 13 E7      [24] 2956 	mov	dptr,#(_rmodm + 0x00e7)
   1477 F0            [24] 2957 	movx	@dptr,a
   1478 90 13 E8      [24] 2958 	mov	dptr,#(_rmodm + 0x00e8)
   147B E4            [12] 2959 	clr	a
   147C F0            [24] 2960 	movx	@dptr,a
   147D 90 13 E9      [24] 2961 	mov	dptr,#(_rmodm + 0x00e9)
   1480 F0            [24] 2962 	movx	@dptr,a
   1481 90 13 EA      [24] 2963 	mov	dptr,#(_rmodm + 0x00ea)
   1484 F0            [24] 2964 	movx	@dptr,a
   1485 90 13 EB      [24] 2965 	mov	dptr,#(_rmodm + 0x00eb)
   1488 F0            [24] 2966 	movx	@dptr,a
   1489 90 13 EC      [24] 2967 	mov	dptr,#(_rmodm + 0x00ec)
   148C E4            [12] 2968 	clr	a
   148D F0            [24] 2969 	movx	@dptr,a
   148E 90 13 ED      [24] 2970 	mov	dptr,#(_rmodm + 0x00ed)
   1491 F0            [24] 2971 	movx	@dptr,a
   1492 90 13 EE      [24] 2972 	mov	dptr,#(_rmodm + 0x00ee)
   1495 F0            [24] 2973 	movx	@dptr,a
   1496 90 13 EF      [24] 2974 	mov	dptr,#(_rmodm + 0x00ef)
   1499 F0            [24] 2975 	movx	@dptr,a
   149A 90 13 F0      [24] 2976 	mov	dptr,#(_rmodm + 0x00f0)
   149D E4            [12] 2977 	clr	a
   149E F0            [24] 2978 	movx	@dptr,a
   149F 90 13 F1      [24] 2979 	mov	dptr,#(_rmodm + 0x00f1)
   14A2 F0            [24] 2980 	movx	@dptr,a
   14A3 90 13 F2      [24] 2981 	mov	dptr,#(_rmodm + 0x00f2)
   14A6 F0            [24] 2982 	movx	@dptr,a
   14A7 90 13 F3      [24] 2983 	mov	dptr,#(_rmodm + 0x00f3)
   14AA F0            [24] 2984 	movx	@dptr,a
   14AB 90 13 F4      [24] 2985 	mov	dptr,#(_rmodm + 0x00f4)
   14AE E4            [12] 2986 	clr	a
   14AF F0            [24] 2987 	movx	@dptr,a
   14B0 90 13 F5      [24] 2988 	mov	dptr,#(_rmodm + 0x00f5)
   14B3 F0            [24] 2989 	movx	@dptr,a
   14B4 90 13 F6      [24] 2990 	mov	dptr,#(_rmodm + 0x00f6)
   14B7 F0            [24] 2991 	movx	@dptr,a
   14B8 90 13 F7      [24] 2992 	mov	dptr,#(_rmodm + 0x00f7)
   14BB F0            [24] 2993 	movx	@dptr,a
   14BC 90 13 F8      [24] 2994 	mov	dptr,#(_rmodm + 0x00f8)
   14BF E4            [12] 2995 	clr	a
   14C0 F0            [24] 2996 	movx	@dptr,a
   14C1 90 13 F9      [24] 2997 	mov	dptr,#(_rmodm + 0x00f9)
   14C4 F0            [24] 2998 	movx	@dptr,a
   14C5 90 13 FA      [24] 2999 	mov	dptr,#(_rmodm + 0x00fa)
   14C8 F0            [24] 3000 	movx	@dptr,a
   14C9 90 13 FB      [24] 3001 	mov	dptr,#(_rmodm + 0x00fb)
   14CC F0            [24] 3002 	movx	@dptr,a
   14CD 90 13 FC      [24] 3003 	mov	dptr,#(_rmodm + 0x00fc)
   14D0 E4            [12] 3004 	clr	a
   14D1 F0            [24] 3005 	movx	@dptr,a
   14D2 90 13 FD      [24] 3006 	mov	dptr,#(_rmodm + 0x00fd)
   14D5 F0            [24] 3007 	movx	@dptr,a
   14D6 90 13 FE      [24] 3008 	mov	dptr,#(_rmodm + 0x00fe)
   14D9 F0            [24] 3009 	movx	@dptr,a
   14DA 90 13 FF      [24] 3010 	mov	dptr,#(_rmodm + 0x00ff)
   14DD F0            [24] 3011 	movx	@dptr,a
                           3012 ;	rsa_exponent.c:50: volatile __xdata __at (0x1400) unsigned char a[] = {0x00, 0x00, 0x00, 0x00, 0x00, 0x00, 0x00, 0x00, 0x00, 0x00, 0x00, 0x00, 0x00, 0x00, 0x00, 0x00, 0x00, 0x00, 0x00, 0x00, 0x00, 0x00, 0x00, 0x00, 0x00, 0x00, 0x00, 0x00, 0x00, 0x00, 0x00, 0x00, 0x00, 0x00, 0x00, 0x00, 0x00, 0x00, 0x00, 0x00, 0x00, 0x00, 0x00, 0x00, 0x00, 0x00, 0x00, 0x00, 0x00, 0x00, 0x00, 0x00, 0x00, 0x00, 0x00, 0x00, 0x00, 0x00, 0x00, 0x00, 0x00, 0x00, 0x00, 0x00, 0x00, 0x00, 0x00, 0x00, 0x00, 0x00, 0x00, 0x00, 0x00, 0x00, 0x00, 0x00, 0x00, 0x00, 0x00, 0x00, 0x00, 0x00, 0x00, 0x00, 0x00, 0x00, 0x00, 0x00, 0x00, 0x00, 0x00, 0x00, 0x00, 0x00, 0x00, 0x00, 0x00, 0x00, 0x00, 0x00, 0x00, 0x00, 0x00, 0x00, 0x00, 0x00, 0x00, 0x00, 0x00, 0x00, 0x00, 0x00, 0x00, 0x00, 0x00, 0x00, 0x00, 0x00, 0x00, 0x00, 0x00, 0x00, 0x00, 0x00, 0x00, 0x00, 0x00, 0x00, 0x00, 0x00, 0x00, 0x00, 0x00, 0x00, 0x00, 0x00, 0x00, 0x00, 0x00, 0x00, 0x00, 0x00, 0x00, 0x00, 0x00, 0x00, 0x00, 0x00, 0x00, 0x00, 0x00, 0x00, 0x00, 0x00, 0x00, 0x00, 0x00, 0x00, 0x00, 0x00, 0x00, 0x00, 0x00, 0x00, 0x00, 0x00, 0x00, 0x00, 0x00, 0x00, 0x00, 0x00, 0x00, 0x00, 0x00, 0x00, 0x00, 0x00, 0x00, 0x00, 0x00, 0x00, 0x00, 0x00, 0x00, 0x00, 0x00, 0x00, 0x00, 0x00, 0x00, 0x00, 0x00, 0x00, 0x00, 0x00, 0x00, 0x00, 0x00, 0x00, 0x00, 0x00, 0x00, 0x00, 0x00, 0x00, 0x00, 0x00, 0x00, 0x00, 0x00, 0x00, 0x00, 0x00, 0x00, 0x00, 0x00, 0x00, 0x00, 0x00, 0x00, 0x00, 0x00, 0x00, 0x00, 0x00, 0x00, 0x00, 0x00, 0x00, 0x00, 0x00, 0x00, 0x00, 0x00, 0x00, 0x00, 0x00, 0x00, 0x00, 0x00, 0x00, 0x00, 0x00, 0x00, 0x00, 0x00, 0x00, 0x00, 0x00, 0x00, 0x00, 0x00, 0x00, 0x00, 0x00 };
   14DE 90 14 00      [24] 3013 	mov	dptr,#_a
   14E1 E4            [12] 3014 	clr	a
   14E2 F0            [24] 3015 	movx	@dptr,a
   14E3 90 14 01      [24] 3016 	mov	dptr,#(_a + 0x0001)
   14E6 F0            [24] 3017 	movx	@dptr,a
   14E7 90 14 02      [24] 3018 	mov	dptr,#(_a + 0x0002)
   14EA F0            [24] 3019 	movx	@dptr,a
   14EB 90 14 03      [24] 3020 	mov	dptr,#(_a + 0x0003)
   14EE F0            [24] 3021 	movx	@dptr,a
   14EF 90 14 04      [24] 3022 	mov	dptr,#(_a + 0x0004)
   14F2 E4            [12] 3023 	clr	a
   14F3 F0            [24] 3024 	movx	@dptr,a
   14F4 90 14 05      [24] 3025 	mov	dptr,#(_a + 0x0005)
   14F7 F0            [24] 3026 	movx	@dptr,a
   14F8 90 14 06      [24] 3027 	mov	dptr,#(_a + 0x0006)
   14FB F0            [24] 3028 	movx	@dptr,a
   14FC 90 14 07      [24] 3029 	mov	dptr,#(_a + 0x0007)
   14FF F0            [24] 3030 	movx	@dptr,a
   1500 90 14 08      [24] 3031 	mov	dptr,#(_a + 0x0008)
   1503 E4            [12] 3032 	clr	a
   1504 F0            [24] 3033 	movx	@dptr,a
   1505 90 14 09      [24] 3034 	mov	dptr,#(_a + 0x0009)
   1508 F0            [24] 3035 	movx	@dptr,a
   1509 90 14 0A      [24] 3036 	mov	dptr,#(_a + 0x000a)
   150C F0            [24] 3037 	movx	@dptr,a
   150D 90 14 0B      [24] 3038 	mov	dptr,#(_a + 0x000b)
   1510 F0            [24] 3039 	movx	@dptr,a
   1511 90 14 0C      [24] 3040 	mov	dptr,#(_a + 0x000c)
   1514 E4            [12] 3041 	clr	a
   1515 F0            [24] 3042 	movx	@dptr,a
   1516 90 14 0D      [24] 3043 	mov	dptr,#(_a + 0x000d)
   1519 F0            [24] 3044 	movx	@dptr,a
   151A 90 14 0E      [24] 3045 	mov	dptr,#(_a + 0x000e)
   151D F0            [24] 3046 	movx	@dptr,a
   151E 90 14 0F      [24] 3047 	mov	dptr,#(_a + 0x000f)
   1521 F0            [24] 3048 	movx	@dptr,a
   1522 90 14 10      [24] 3049 	mov	dptr,#(_a + 0x0010)
   1525 E4            [12] 3050 	clr	a
   1526 F0            [24] 3051 	movx	@dptr,a
   1527 90 14 11      [24] 3052 	mov	dptr,#(_a + 0x0011)
   152A F0            [24] 3053 	movx	@dptr,a
   152B 90 14 12      [24] 3054 	mov	dptr,#(_a + 0x0012)
   152E F0            [24] 3055 	movx	@dptr,a
   152F 90 14 13      [24] 3056 	mov	dptr,#(_a + 0x0013)
   1532 F0            [24] 3057 	movx	@dptr,a
   1533 90 14 14      [24] 3058 	mov	dptr,#(_a + 0x0014)
   1536 E4            [12] 3059 	clr	a
   1537 F0            [24] 3060 	movx	@dptr,a
   1538 90 14 15      [24] 3061 	mov	dptr,#(_a + 0x0015)
   153B F0            [24] 3062 	movx	@dptr,a
   153C 90 14 16      [24] 3063 	mov	dptr,#(_a + 0x0016)
   153F F0            [24] 3064 	movx	@dptr,a
   1540 90 14 17      [24] 3065 	mov	dptr,#(_a + 0x0017)
   1543 F0            [24] 3066 	movx	@dptr,a
   1544 90 14 18      [24] 3067 	mov	dptr,#(_a + 0x0018)
   1547 E4            [12] 3068 	clr	a
   1548 F0            [24] 3069 	movx	@dptr,a
   1549 90 14 19      [24] 3070 	mov	dptr,#(_a + 0x0019)
   154C F0            [24] 3071 	movx	@dptr,a
   154D 90 14 1A      [24] 3072 	mov	dptr,#(_a + 0x001a)
   1550 F0            [24] 3073 	movx	@dptr,a
   1551 90 14 1B      [24] 3074 	mov	dptr,#(_a + 0x001b)
   1554 F0            [24] 3075 	movx	@dptr,a
   1555 90 14 1C      [24] 3076 	mov	dptr,#(_a + 0x001c)
   1558 E4            [12] 3077 	clr	a
   1559 F0            [24] 3078 	movx	@dptr,a
   155A 90 14 1D      [24] 3079 	mov	dptr,#(_a + 0x001d)
   155D F0            [24] 3080 	movx	@dptr,a
   155E 90 14 1E      [24] 3081 	mov	dptr,#(_a + 0x001e)
   1561 F0            [24] 3082 	movx	@dptr,a
   1562 90 14 1F      [24] 3083 	mov	dptr,#(_a + 0x001f)
   1565 F0            [24] 3084 	movx	@dptr,a
   1566 90 14 20      [24] 3085 	mov	dptr,#(_a + 0x0020)
   1569 E4            [12] 3086 	clr	a
   156A F0            [24] 3087 	movx	@dptr,a
   156B 90 14 21      [24] 3088 	mov	dptr,#(_a + 0x0021)
   156E F0            [24] 3089 	movx	@dptr,a
   156F 90 14 22      [24] 3090 	mov	dptr,#(_a + 0x0022)
   1572 F0            [24] 3091 	movx	@dptr,a
   1573 90 14 23      [24] 3092 	mov	dptr,#(_a + 0x0023)
   1576 F0            [24] 3093 	movx	@dptr,a
   1577 90 14 24      [24] 3094 	mov	dptr,#(_a + 0x0024)
   157A E4            [12] 3095 	clr	a
   157B F0            [24] 3096 	movx	@dptr,a
   157C 90 14 25      [24] 3097 	mov	dptr,#(_a + 0x0025)
   157F F0            [24] 3098 	movx	@dptr,a
   1580 90 14 26      [24] 3099 	mov	dptr,#(_a + 0x0026)
   1583 F0            [24] 3100 	movx	@dptr,a
   1584 90 14 27      [24] 3101 	mov	dptr,#(_a + 0x0027)
   1587 F0            [24] 3102 	movx	@dptr,a
   1588 90 14 28      [24] 3103 	mov	dptr,#(_a + 0x0028)
   158B E4            [12] 3104 	clr	a
   158C F0            [24] 3105 	movx	@dptr,a
   158D 90 14 29      [24] 3106 	mov	dptr,#(_a + 0x0029)
   1590 F0            [24] 3107 	movx	@dptr,a
   1591 90 14 2A      [24] 3108 	mov	dptr,#(_a + 0x002a)
   1594 F0            [24] 3109 	movx	@dptr,a
   1595 90 14 2B      [24] 3110 	mov	dptr,#(_a + 0x002b)
   1598 F0            [24] 3111 	movx	@dptr,a
   1599 90 14 2C      [24] 3112 	mov	dptr,#(_a + 0x002c)
   159C E4            [12] 3113 	clr	a
   159D F0            [24] 3114 	movx	@dptr,a
   159E 90 14 2D      [24] 3115 	mov	dptr,#(_a + 0x002d)
   15A1 F0            [24] 3116 	movx	@dptr,a
   15A2 90 14 2E      [24] 3117 	mov	dptr,#(_a + 0x002e)
   15A5 F0            [24] 3118 	movx	@dptr,a
   15A6 90 14 2F      [24] 3119 	mov	dptr,#(_a + 0x002f)
   15A9 F0            [24] 3120 	movx	@dptr,a
   15AA 90 14 30      [24] 3121 	mov	dptr,#(_a + 0x0030)
   15AD E4            [12] 3122 	clr	a
   15AE F0            [24] 3123 	movx	@dptr,a
   15AF 90 14 31      [24] 3124 	mov	dptr,#(_a + 0x0031)
   15B2 F0            [24] 3125 	movx	@dptr,a
   15B3 90 14 32      [24] 3126 	mov	dptr,#(_a + 0x0032)
   15B6 F0            [24] 3127 	movx	@dptr,a
   15B7 90 14 33      [24] 3128 	mov	dptr,#(_a + 0x0033)
   15BA F0            [24] 3129 	movx	@dptr,a
   15BB 90 14 34      [24] 3130 	mov	dptr,#(_a + 0x0034)
   15BE E4            [12] 3131 	clr	a
   15BF F0            [24] 3132 	movx	@dptr,a
   15C0 90 14 35      [24] 3133 	mov	dptr,#(_a + 0x0035)
   15C3 F0            [24] 3134 	movx	@dptr,a
   15C4 90 14 36      [24] 3135 	mov	dptr,#(_a + 0x0036)
   15C7 F0            [24] 3136 	movx	@dptr,a
   15C8 90 14 37      [24] 3137 	mov	dptr,#(_a + 0x0037)
   15CB F0            [24] 3138 	movx	@dptr,a
   15CC 90 14 38      [24] 3139 	mov	dptr,#(_a + 0x0038)
   15CF E4            [12] 3140 	clr	a
   15D0 F0            [24] 3141 	movx	@dptr,a
   15D1 90 14 39      [24] 3142 	mov	dptr,#(_a + 0x0039)
   15D4 F0            [24] 3143 	movx	@dptr,a
   15D5 90 14 3A      [24] 3144 	mov	dptr,#(_a + 0x003a)
   15D8 F0            [24] 3145 	movx	@dptr,a
   15D9 90 14 3B      [24] 3146 	mov	dptr,#(_a + 0x003b)
   15DC F0            [24] 3147 	movx	@dptr,a
   15DD 90 14 3C      [24] 3148 	mov	dptr,#(_a + 0x003c)
   15E0 E4            [12] 3149 	clr	a
   15E1 F0            [24] 3150 	movx	@dptr,a
   15E2 90 14 3D      [24] 3151 	mov	dptr,#(_a + 0x003d)
   15E5 F0            [24] 3152 	movx	@dptr,a
   15E6 90 14 3E      [24] 3153 	mov	dptr,#(_a + 0x003e)
   15E9 F0            [24] 3154 	movx	@dptr,a
   15EA 90 14 3F      [24] 3155 	mov	dptr,#(_a + 0x003f)
   15ED F0            [24] 3156 	movx	@dptr,a
   15EE 90 14 40      [24] 3157 	mov	dptr,#(_a + 0x0040)
   15F1 E4            [12] 3158 	clr	a
   15F2 F0            [24] 3159 	movx	@dptr,a
   15F3 90 14 41      [24] 3160 	mov	dptr,#(_a + 0x0041)
   15F6 F0            [24] 3161 	movx	@dptr,a
   15F7 90 14 42      [24] 3162 	mov	dptr,#(_a + 0x0042)
   15FA F0            [24] 3163 	movx	@dptr,a
   15FB 90 14 43      [24] 3164 	mov	dptr,#(_a + 0x0043)
   15FE F0            [24] 3165 	movx	@dptr,a
   15FF 90 14 44      [24] 3166 	mov	dptr,#(_a + 0x0044)
   1602 E4            [12] 3167 	clr	a
   1603 F0            [24] 3168 	movx	@dptr,a
   1604 90 14 45      [24] 3169 	mov	dptr,#(_a + 0x0045)
   1607 F0            [24] 3170 	movx	@dptr,a
   1608 90 14 46      [24] 3171 	mov	dptr,#(_a + 0x0046)
   160B F0            [24] 3172 	movx	@dptr,a
   160C 90 14 47      [24] 3173 	mov	dptr,#(_a + 0x0047)
   160F F0            [24] 3174 	movx	@dptr,a
   1610 90 14 48      [24] 3175 	mov	dptr,#(_a + 0x0048)
   1613 E4            [12] 3176 	clr	a
   1614 F0            [24] 3177 	movx	@dptr,a
   1615 90 14 49      [24] 3178 	mov	dptr,#(_a + 0x0049)
   1618 F0            [24] 3179 	movx	@dptr,a
   1619 90 14 4A      [24] 3180 	mov	dptr,#(_a + 0x004a)
   161C F0            [24] 3181 	movx	@dptr,a
   161D 90 14 4B      [24] 3182 	mov	dptr,#(_a + 0x004b)
   1620 F0            [24] 3183 	movx	@dptr,a
   1621 90 14 4C      [24] 3184 	mov	dptr,#(_a + 0x004c)
   1624 E4            [12] 3185 	clr	a
   1625 F0            [24] 3186 	movx	@dptr,a
   1626 90 14 4D      [24] 3187 	mov	dptr,#(_a + 0x004d)
   1629 F0            [24] 3188 	movx	@dptr,a
   162A 90 14 4E      [24] 3189 	mov	dptr,#(_a + 0x004e)
   162D F0            [24] 3190 	movx	@dptr,a
   162E 90 14 4F      [24] 3191 	mov	dptr,#(_a + 0x004f)
   1631 F0            [24] 3192 	movx	@dptr,a
   1632 90 14 50      [24] 3193 	mov	dptr,#(_a + 0x0050)
   1635 E4            [12] 3194 	clr	a
   1636 F0            [24] 3195 	movx	@dptr,a
   1637 90 14 51      [24] 3196 	mov	dptr,#(_a + 0x0051)
   163A F0            [24] 3197 	movx	@dptr,a
   163B 90 14 52      [24] 3198 	mov	dptr,#(_a + 0x0052)
   163E F0            [24] 3199 	movx	@dptr,a
   163F 90 14 53      [24] 3200 	mov	dptr,#(_a + 0x0053)
   1642 F0            [24] 3201 	movx	@dptr,a
   1643 90 14 54      [24] 3202 	mov	dptr,#(_a + 0x0054)
   1646 E4            [12] 3203 	clr	a
   1647 F0            [24] 3204 	movx	@dptr,a
   1648 90 14 55      [24] 3205 	mov	dptr,#(_a + 0x0055)
   164B F0            [24] 3206 	movx	@dptr,a
   164C 90 14 56      [24] 3207 	mov	dptr,#(_a + 0x0056)
   164F F0            [24] 3208 	movx	@dptr,a
   1650 90 14 57      [24] 3209 	mov	dptr,#(_a + 0x0057)
   1653 F0            [24] 3210 	movx	@dptr,a
   1654 90 14 58      [24] 3211 	mov	dptr,#(_a + 0x0058)
   1657 E4            [12] 3212 	clr	a
   1658 F0            [24] 3213 	movx	@dptr,a
   1659 90 14 59      [24] 3214 	mov	dptr,#(_a + 0x0059)
   165C F0            [24] 3215 	movx	@dptr,a
   165D 90 14 5A      [24] 3216 	mov	dptr,#(_a + 0x005a)
   1660 F0            [24] 3217 	movx	@dptr,a
   1661 90 14 5B      [24] 3218 	mov	dptr,#(_a + 0x005b)
   1664 F0            [24] 3219 	movx	@dptr,a
   1665 90 14 5C      [24] 3220 	mov	dptr,#(_a + 0x005c)
   1668 E4            [12] 3221 	clr	a
   1669 F0            [24] 3222 	movx	@dptr,a
   166A 90 14 5D      [24] 3223 	mov	dptr,#(_a + 0x005d)
   166D F0            [24] 3224 	movx	@dptr,a
   166E 90 14 5E      [24] 3225 	mov	dptr,#(_a + 0x005e)
   1671 F0            [24] 3226 	movx	@dptr,a
   1672 90 14 5F      [24] 3227 	mov	dptr,#(_a + 0x005f)
   1675 F0            [24] 3228 	movx	@dptr,a
   1676 90 14 60      [24] 3229 	mov	dptr,#(_a + 0x0060)
   1679 E4            [12] 3230 	clr	a
   167A F0            [24] 3231 	movx	@dptr,a
   167B 90 14 61      [24] 3232 	mov	dptr,#(_a + 0x0061)
   167E F0            [24] 3233 	movx	@dptr,a
   167F 90 14 62      [24] 3234 	mov	dptr,#(_a + 0x0062)
   1682 F0            [24] 3235 	movx	@dptr,a
   1683 90 14 63      [24] 3236 	mov	dptr,#(_a + 0x0063)
   1686 F0            [24] 3237 	movx	@dptr,a
   1687 90 14 64      [24] 3238 	mov	dptr,#(_a + 0x0064)
   168A E4            [12] 3239 	clr	a
   168B F0            [24] 3240 	movx	@dptr,a
   168C 90 14 65      [24] 3241 	mov	dptr,#(_a + 0x0065)
   168F F0            [24] 3242 	movx	@dptr,a
   1690 90 14 66      [24] 3243 	mov	dptr,#(_a + 0x0066)
   1693 F0            [24] 3244 	movx	@dptr,a
   1694 90 14 67      [24] 3245 	mov	dptr,#(_a + 0x0067)
   1697 F0            [24] 3246 	movx	@dptr,a
   1698 90 14 68      [24] 3247 	mov	dptr,#(_a + 0x0068)
   169B E4            [12] 3248 	clr	a
   169C F0            [24] 3249 	movx	@dptr,a
   169D 90 14 69      [24] 3250 	mov	dptr,#(_a + 0x0069)
   16A0 F0            [24] 3251 	movx	@dptr,a
   16A1 90 14 6A      [24] 3252 	mov	dptr,#(_a + 0x006a)
   16A4 F0            [24] 3253 	movx	@dptr,a
   16A5 90 14 6B      [24] 3254 	mov	dptr,#(_a + 0x006b)
   16A8 F0            [24] 3255 	movx	@dptr,a
   16A9 90 14 6C      [24] 3256 	mov	dptr,#(_a + 0x006c)
   16AC E4            [12] 3257 	clr	a
   16AD F0            [24] 3258 	movx	@dptr,a
   16AE 90 14 6D      [24] 3259 	mov	dptr,#(_a + 0x006d)
   16B1 F0            [24] 3260 	movx	@dptr,a
   16B2 90 14 6E      [24] 3261 	mov	dptr,#(_a + 0x006e)
   16B5 F0            [24] 3262 	movx	@dptr,a
   16B6 90 14 6F      [24] 3263 	mov	dptr,#(_a + 0x006f)
   16B9 F0            [24] 3264 	movx	@dptr,a
   16BA 90 14 70      [24] 3265 	mov	dptr,#(_a + 0x0070)
   16BD E4            [12] 3266 	clr	a
   16BE F0            [24] 3267 	movx	@dptr,a
   16BF 90 14 71      [24] 3268 	mov	dptr,#(_a + 0x0071)
   16C2 F0            [24] 3269 	movx	@dptr,a
   16C3 90 14 72      [24] 3270 	mov	dptr,#(_a + 0x0072)
   16C6 F0            [24] 3271 	movx	@dptr,a
   16C7 90 14 73      [24] 3272 	mov	dptr,#(_a + 0x0073)
   16CA F0            [24] 3273 	movx	@dptr,a
   16CB 90 14 74      [24] 3274 	mov	dptr,#(_a + 0x0074)
   16CE E4            [12] 3275 	clr	a
   16CF F0            [24] 3276 	movx	@dptr,a
   16D0 90 14 75      [24] 3277 	mov	dptr,#(_a + 0x0075)
   16D3 F0            [24] 3278 	movx	@dptr,a
   16D4 90 14 76      [24] 3279 	mov	dptr,#(_a + 0x0076)
   16D7 F0            [24] 3280 	movx	@dptr,a
   16D8 90 14 77      [24] 3281 	mov	dptr,#(_a + 0x0077)
   16DB F0            [24] 3282 	movx	@dptr,a
   16DC 90 14 78      [24] 3283 	mov	dptr,#(_a + 0x0078)
   16DF E4            [12] 3284 	clr	a
   16E0 F0            [24] 3285 	movx	@dptr,a
   16E1 90 14 79      [24] 3286 	mov	dptr,#(_a + 0x0079)
   16E4 F0            [24] 3287 	movx	@dptr,a
   16E5 90 14 7A      [24] 3288 	mov	dptr,#(_a + 0x007a)
   16E8 F0            [24] 3289 	movx	@dptr,a
   16E9 90 14 7B      [24] 3290 	mov	dptr,#(_a + 0x007b)
   16EC F0            [24] 3291 	movx	@dptr,a
   16ED 90 14 7C      [24] 3292 	mov	dptr,#(_a + 0x007c)
   16F0 E4            [12] 3293 	clr	a
   16F1 F0            [24] 3294 	movx	@dptr,a
   16F2 90 14 7D      [24] 3295 	mov	dptr,#(_a + 0x007d)
   16F5 F0            [24] 3296 	movx	@dptr,a
   16F6 90 14 7E      [24] 3297 	mov	dptr,#(_a + 0x007e)
   16F9 F0            [24] 3298 	movx	@dptr,a
   16FA 90 14 7F      [24] 3299 	mov	dptr,#(_a + 0x007f)
   16FD F0            [24] 3300 	movx	@dptr,a
   16FE 90 14 80      [24] 3301 	mov	dptr,#(_a + 0x0080)
   1701 E4            [12] 3302 	clr	a
   1702 F0            [24] 3303 	movx	@dptr,a
   1703 90 14 81      [24] 3304 	mov	dptr,#(_a + 0x0081)
   1706 F0            [24] 3305 	movx	@dptr,a
   1707 90 14 82      [24] 3306 	mov	dptr,#(_a + 0x0082)
   170A F0            [24] 3307 	movx	@dptr,a
   170B 90 14 83      [24] 3308 	mov	dptr,#(_a + 0x0083)
   170E F0            [24] 3309 	movx	@dptr,a
   170F 90 14 84      [24] 3310 	mov	dptr,#(_a + 0x0084)
   1712 E4            [12] 3311 	clr	a
   1713 F0            [24] 3312 	movx	@dptr,a
   1714 90 14 85      [24] 3313 	mov	dptr,#(_a + 0x0085)
   1717 F0            [24] 3314 	movx	@dptr,a
   1718 90 14 86      [24] 3315 	mov	dptr,#(_a + 0x0086)
   171B F0            [24] 3316 	movx	@dptr,a
   171C 90 14 87      [24] 3317 	mov	dptr,#(_a + 0x0087)
   171F F0            [24] 3318 	movx	@dptr,a
   1720 90 14 88      [24] 3319 	mov	dptr,#(_a + 0x0088)
   1723 E4            [12] 3320 	clr	a
   1724 F0            [24] 3321 	movx	@dptr,a
   1725 90 14 89      [24] 3322 	mov	dptr,#(_a + 0x0089)
   1728 F0            [24] 3323 	movx	@dptr,a
   1729 90 14 8A      [24] 3324 	mov	dptr,#(_a + 0x008a)
   172C F0            [24] 3325 	movx	@dptr,a
   172D 90 14 8B      [24] 3326 	mov	dptr,#(_a + 0x008b)
   1730 F0            [24] 3327 	movx	@dptr,a
   1731 90 14 8C      [24] 3328 	mov	dptr,#(_a + 0x008c)
   1734 E4            [12] 3329 	clr	a
   1735 F0            [24] 3330 	movx	@dptr,a
   1736 90 14 8D      [24] 3331 	mov	dptr,#(_a + 0x008d)
   1739 F0            [24] 3332 	movx	@dptr,a
   173A 90 14 8E      [24] 3333 	mov	dptr,#(_a + 0x008e)
   173D F0            [24] 3334 	movx	@dptr,a
   173E 90 14 8F      [24] 3335 	mov	dptr,#(_a + 0x008f)
   1741 F0            [24] 3336 	movx	@dptr,a
   1742 90 14 90      [24] 3337 	mov	dptr,#(_a + 0x0090)
   1745 E4            [12] 3338 	clr	a
   1746 F0            [24] 3339 	movx	@dptr,a
   1747 90 14 91      [24] 3340 	mov	dptr,#(_a + 0x0091)
   174A F0            [24] 3341 	movx	@dptr,a
   174B 90 14 92      [24] 3342 	mov	dptr,#(_a + 0x0092)
   174E F0            [24] 3343 	movx	@dptr,a
   174F 90 14 93      [24] 3344 	mov	dptr,#(_a + 0x0093)
   1752 F0            [24] 3345 	movx	@dptr,a
   1753 90 14 94      [24] 3346 	mov	dptr,#(_a + 0x0094)
   1756 E4            [12] 3347 	clr	a
   1757 F0            [24] 3348 	movx	@dptr,a
   1758 90 14 95      [24] 3349 	mov	dptr,#(_a + 0x0095)
   175B F0            [24] 3350 	movx	@dptr,a
   175C 90 14 96      [24] 3351 	mov	dptr,#(_a + 0x0096)
   175F F0            [24] 3352 	movx	@dptr,a
   1760 90 14 97      [24] 3353 	mov	dptr,#(_a + 0x0097)
   1763 F0            [24] 3354 	movx	@dptr,a
   1764 90 14 98      [24] 3355 	mov	dptr,#(_a + 0x0098)
   1767 E4            [12] 3356 	clr	a
   1768 F0            [24] 3357 	movx	@dptr,a
   1769 90 14 99      [24] 3358 	mov	dptr,#(_a + 0x0099)
   176C F0            [24] 3359 	movx	@dptr,a
   176D 90 14 9A      [24] 3360 	mov	dptr,#(_a + 0x009a)
   1770 F0            [24] 3361 	movx	@dptr,a
   1771 90 14 9B      [24] 3362 	mov	dptr,#(_a + 0x009b)
   1774 F0            [24] 3363 	movx	@dptr,a
   1775 90 14 9C      [24] 3364 	mov	dptr,#(_a + 0x009c)
   1778 E4            [12] 3365 	clr	a
   1779 F0            [24] 3366 	movx	@dptr,a
   177A 90 14 9D      [24] 3367 	mov	dptr,#(_a + 0x009d)
   177D F0            [24] 3368 	movx	@dptr,a
   177E 90 14 9E      [24] 3369 	mov	dptr,#(_a + 0x009e)
   1781 F0            [24] 3370 	movx	@dptr,a
   1782 90 14 9F      [24] 3371 	mov	dptr,#(_a + 0x009f)
   1785 F0            [24] 3372 	movx	@dptr,a
   1786 90 14 A0      [24] 3373 	mov	dptr,#(_a + 0x00a0)
   1789 E4            [12] 3374 	clr	a
   178A F0            [24] 3375 	movx	@dptr,a
   178B 90 14 A1      [24] 3376 	mov	dptr,#(_a + 0x00a1)
   178E F0            [24] 3377 	movx	@dptr,a
   178F 90 14 A2      [24] 3378 	mov	dptr,#(_a + 0x00a2)
   1792 F0            [24] 3379 	movx	@dptr,a
   1793 90 14 A3      [24] 3380 	mov	dptr,#(_a + 0x00a3)
   1796 F0            [24] 3381 	movx	@dptr,a
   1797 90 14 A4      [24] 3382 	mov	dptr,#(_a + 0x00a4)
   179A E4            [12] 3383 	clr	a
   179B F0            [24] 3384 	movx	@dptr,a
   179C 90 14 A5      [24] 3385 	mov	dptr,#(_a + 0x00a5)
   179F F0            [24] 3386 	movx	@dptr,a
   17A0 90 14 A6      [24] 3387 	mov	dptr,#(_a + 0x00a6)
   17A3 F0            [24] 3388 	movx	@dptr,a
   17A4 90 14 A7      [24] 3389 	mov	dptr,#(_a + 0x00a7)
   17A7 F0            [24] 3390 	movx	@dptr,a
   17A8 90 14 A8      [24] 3391 	mov	dptr,#(_a + 0x00a8)
   17AB E4            [12] 3392 	clr	a
   17AC F0            [24] 3393 	movx	@dptr,a
   17AD 90 14 A9      [24] 3394 	mov	dptr,#(_a + 0x00a9)
   17B0 F0            [24] 3395 	movx	@dptr,a
   17B1 90 14 AA      [24] 3396 	mov	dptr,#(_a + 0x00aa)
   17B4 F0            [24] 3397 	movx	@dptr,a
   17B5 90 14 AB      [24] 3398 	mov	dptr,#(_a + 0x00ab)
   17B8 F0            [24] 3399 	movx	@dptr,a
   17B9 90 14 AC      [24] 3400 	mov	dptr,#(_a + 0x00ac)
   17BC E4            [12] 3401 	clr	a
   17BD F0            [24] 3402 	movx	@dptr,a
   17BE 90 14 AD      [24] 3403 	mov	dptr,#(_a + 0x00ad)
   17C1 F0            [24] 3404 	movx	@dptr,a
   17C2 90 14 AE      [24] 3405 	mov	dptr,#(_a + 0x00ae)
   17C5 F0            [24] 3406 	movx	@dptr,a
   17C6 90 14 AF      [24] 3407 	mov	dptr,#(_a + 0x00af)
   17C9 F0            [24] 3408 	movx	@dptr,a
   17CA 90 14 B0      [24] 3409 	mov	dptr,#(_a + 0x00b0)
   17CD E4            [12] 3410 	clr	a
   17CE F0            [24] 3411 	movx	@dptr,a
   17CF 90 14 B1      [24] 3412 	mov	dptr,#(_a + 0x00b1)
   17D2 F0            [24] 3413 	movx	@dptr,a
   17D3 90 14 B2      [24] 3414 	mov	dptr,#(_a + 0x00b2)
   17D6 F0            [24] 3415 	movx	@dptr,a
   17D7 90 14 B3      [24] 3416 	mov	dptr,#(_a + 0x00b3)
   17DA F0            [24] 3417 	movx	@dptr,a
   17DB 90 14 B4      [24] 3418 	mov	dptr,#(_a + 0x00b4)
   17DE E4            [12] 3419 	clr	a
   17DF F0            [24] 3420 	movx	@dptr,a
   17E0 90 14 B5      [24] 3421 	mov	dptr,#(_a + 0x00b5)
   17E3 F0            [24] 3422 	movx	@dptr,a
   17E4 90 14 B6      [24] 3423 	mov	dptr,#(_a + 0x00b6)
   17E7 F0            [24] 3424 	movx	@dptr,a
   17E8 90 14 B7      [24] 3425 	mov	dptr,#(_a + 0x00b7)
   17EB F0            [24] 3426 	movx	@dptr,a
   17EC 90 14 B8      [24] 3427 	mov	dptr,#(_a + 0x00b8)
   17EF E4            [12] 3428 	clr	a
   17F0 F0            [24] 3429 	movx	@dptr,a
   17F1 90 14 B9      [24] 3430 	mov	dptr,#(_a + 0x00b9)
   17F4 F0            [24] 3431 	movx	@dptr,a
   17F5 90 14 BA      [24] 3432 	mov	dptr,#(_a + 0x00ba)
   17F8 F0            [24] 3433 	movx	@dptr,a
   17F9 90 14 BB      [24] 3434 	mov	dptr,#(_a + 0x00bb)
   17FC F0            [24] 3435 	movx	@dptr,a
   17FD 90 14 BC      [24] 3436 	mov	dptr,#(_a + 0x00bc)
   1800 E4            [12] 3437 	clr	a
   1801 F0            [24] 3438 	movx	@dptr,a
   1802 90 14 BD      [24] 3439 	mov	dptr,#(_a + 0x00bd)
   1805 F0            [24] 3440 	movx	@dptr,a
   1806 90 14 BE      [24] 3441 	mov	dptr,#(_a + 0x00be)
   1809 F0            [24] 3442 	movx	@dptr,a
   180A 90 14 BF      [24] 3443 	mov	dptr,#(_a + 0x00bf)
   180D F0            [24] 3444 	movx	@dptr,a
   180E 90 14 C0      [24] 3445 	mov	dptr,#(_a + 0x00c0)
   1811 E4            [12] 3446 	clr	a
   1812 F0            [24] 3447 	movx	@dptr,a
   1813 90 14 C1      [24] 3448 	mov	dptr,#(_a + 0x00c1)
   1816 F0            [24] 3449 	movx	@dptr,a
   1817 90 14 C2      [24] 3450 	mov	dptr,#(_a + 0x00c2)
   181A F0            [24] 3451 	movx	@dptr,a
   181B 90 14 C3      [24] 3452 	mov	dptr,#(_a + 0x00c3)
   181E F0            [24] 3453 	movx	@dptr,a
   181F 90 14 C4      [24] 3454 	mov	dptr,#(_a + 0x00c4)
   1822 E4            [12] 3455 	clr	a
   1823 F0            [24] 3456 	movx	@dptr,a
   1824 90 14 C5      [24] 3457 	mov	dptr,#(_a + 0x00c5)
   1827 F0            [24] 3458 	movx	@dptr,a
   1828 90 14 C6      [24] 3459 	mov	dptr,#(_a + 0x00c6)
   182B F0            [24] 3460 	movx	@dptr,a
   182C 90 14 C7      [24] 3461 	mov	dptr,#(_a + 0x00c7)
   182F F0            [24] 3462 	movx	@dptr,a
   1830 90 14 C8      [24] 3463 	mov	dptr,#(_a + 0x00c8)
   1833 E4            [12] 3464 	clr	a
   1834 F0            [24] 3465 	movx	@dptr,a
   1835 90 14 C9      [24] 3466 	mov	dptr,#(_a + 0x00c9)
   1838 F0            [24] 3467 	movx	@dptr,a
   1839 90 14 CA      [24] 3468 	mov	dptr,#(_a + 0x00ca)
   183C F0            [24] 3469 	movx	@dptr,a
   183D 90 14 CB      [24] 3470 	mov	dptr,#(_a + 0x00cb)
   1840 F0            [24] 3471 	movx	@dptr,a
   1841 90 14 CC      [24] 3472 	mov	dptr,#(_a + 0x00cc)
   1844 E4            [12] 3473 	clr	a
   1845 F0            [24] 3474 	movx	@dptr,a
   1846 90 14 CD      [24] 3475 	mov	dptr,#(_a + 0x00cd)
   1849 F0            [24] 3476 	movx	@dptr,a
   184A 90 14 CE      [24] 3477 	mov	dptr,#(_a + 0x00ce)
   184D F0            [24] 3478 	movx	@dptr,a
   184E 90 14 CF      [24] 3479 	mov	dptr,#(_a + 0x00cf)
   1851 F0            [24] 3480 	movx	@dptr,a
   1852 90 14 D0      [24] 3481 	mov	dptr,#(_a + 0x00d0)
   1855 E4            [12] 3482 	clr	a
   1856 F0            [24] 3483 	movx	@dptr,a
   1857 90 14 D1      [24] 3484 	mov	dptr,#(_a + 0x00d1)
   185A F0            [24] 3485 	movx	@dptr,a
   185B 90 14 D2      [24] 3486 	mov	dptr,#(_a + 0x00d2)
   185E F0            [24] 3487 	movx	@dptr,a
   185F 90 14 D3      [24] 3488 	mov	dptr,#(_a + 0x00d3)
   1862 F0            [24] 3489 	movx	@dptr,a
   1863 90 14 D4      [24] 3490 	mov	dptr,#(_a + 0x00d4)
   1866 E4            [12] 3491 	clr	a
   1867 F0            [24] 3492 	movx	@dptr,a
   1868 90 14 D5      [24] 3493 	mov	dptr,#(_a + 0x00d5)
   186B F0            [24] 3494 	movx	@dptr,a
   186C 90 14 D6      [24] 3495 	mov	dptr,#(_a + 0x00d6)
   186F F0            [24] 3496 	movx	@dptr,a
   1870 90 14 D7      [24] 3497 	mov	dptr,#(_a + 0x00d7)
   1873 F0            [24] 3498 	movx	@dptr,a
   1874 90 14 D8      [24] 3499 	mov	dptr,#(_a + 0x00d8)
   1877 E4            [12] 3500 	clr	a
   1878 F0            [24] 3501 	movx	@dptr,a
   1879 90 14 D9      [24] 3502 	mov	dptr,#(_a + 0x00d9)
   187C F0            [24] 3503 	movx	@dptr,a
   187D 90 14 DA      [24] 3504 	mov	dptr,#(_a + 0x00da)
   1880 F0            [24] 3505 	movx	@dptr,a
   1881 90 14 DB      [24] 3506 	mov	dptr,#(_a + 0x00db)
   1884 F0            [24] 3507 	movx	@dptr,a
   1885 90 14 DC      [24] 3508 	mov	dptr,#(_a + 0x00dc)
   1888 E4            [12] 3509 	clr	a
   1889 F0            [24] 3510 	movx	@dptr,a
   188A 90 14 DD      [24] 3511 	mov	dptr,#(_a + 0x00dd)
   188D F0            [24] 3512 	movx	@dptr,a
   188E 90 14 DE      [24] 3513 	mov	dptr,#(_a + 0x00de)
   1891 F0            [24] 3514 	movx	@dptr,a
   1892 90 14 DF      [24] 3515 	mov	dptr,#(_a + 0x00df)
   1895 F0            [24] 3516 	movx	@dptr,a
   1896 90 14 E0      [24] 3517 	mov	dptr,#(_a + 0x00e0)
   1899 E4            [12] 3518 	clr	a
   189A F0            [24] 3519 	movx	@dptr,a
   189B 90 14 E1      [24] 3520 	mov	dptr,#(_a + 0x00e1)
   189E F0            [24] 3521 	movx	@dptr,a
   189F 90 14 E2      [24] 3522 	mov	dptr,#(_a + 0x00e2)
   18A2 F0            [24] 3523 	movx	@dptr,a
   18A3 90 14 E3      [24] 3524 	mov	dptr,#(_a + 0x00e3)
   18A6 F0            [24] 3525 	movx	@dptr,a
   18A7 90 14 E4      [24] 3526 	mov	dptr,#(_a + 0x00e4)
   18AA E4            [12] 3527 	clr	a
   18AB F0            [24] 3528 	movx	@dptr,a
   18AC 90 14 E5      [24] 3529 	mov	dptr,#(_a + 0x00e5)
   18AF F0            [24] 3530 	movx	@dptr,a
   18B0 90 14 E6      [24] 3531 	mov	dptr,#(_a + 0x00e6)
   18B3 F0            [24] 3532 	movx	@dptr,a
   18B4 90 14 E7      [24] 3533 	mov	dptr,#(_a + 0x00e7)
   18B7 F0            [24] 3534 	movx	@dptr,a
   18B8 90 14 E8      [24] 3535 	mov	dptr,#(_a + 0x00e8)
   18BB E4            [12] 3536 	clr	a
   18BC F0            [24] 3537 	movx	@dptr,a
   18BD 90 14 E9      [24] 3538 	mov	dptr,#(_a + 0x00e9)
   18C0 F0            [24] 3539 	movx	@dptr,a
   18C1 90 14 EA      [24] 3540 	mov	dptr,#(_a + 0x00ea)
   18C4 F0            [24] 3541 	movx	@dptr,a
   18C5 90 14 EB      [24] 3542 	mov	dptr,#(_a + 0x00eb)
   18C8 F0            [24] 3543 	movx	@dptr,a
   18C9 90 14 EC      [24] 3544 	mov	dptr,#(_a + 0x00ec)
   18CC E4            [12] 3545 	clr	a
   18CD F0            [24] 3546 	movx	@dptr,a
   18CE 90 14 ED      [24] 3547 	mov	dptr,#(_a + 0x00ed)
   18D1 F0            [24] 3548 	movx	@dptr,a
   18D2 90 14 EE      [24] 3549 	mov	dptr,#(_a + 0x00ee)
   18D5 F0            [24] 3550 	movx	@dptr,a
   18D6 90 14 EF      [24] 3551 	mov	dptr,#(_a + 0x00ef)
   18D9 F0            [24] 3552 	movx	@dptr,a
   18DA 90 14 F0      [24] 3553 	mov	dptr,#(_a + 0x00f0)
   18DD E4            [12] 3554 	clr	a
   18DE F0            [24] 3555 	movx	@dptr,a
   18DF 90 14 F1      [24] 3556 	mov	dptr,#(_a + 0x00f1)
   18E2 F0            [24] 3557 	movx	@dptr,a
   18E3 90 14 F2      [24] 3558 	mov	dptr,#(_a + 0x00f2)
   18E6 F0            [24] 3559 	movx	@dptr,a
   18E7 90 14 F3      [24] 3560 	mov	dptr,#(_a + 0x00f3)
   18EA F0            [24] 3561 	movx	@dptr,a
   18EB 90 14 F4      [24] 3562 	mov	dptr,#(_a + 0x00f4)
   18EE E4            [12] 3563 	clr	a
   18EF F0            [24] 3564 	movx	@dptr,a
   18F0 90 14 F5      [24] 3565 	mov	dptr,#(_a + 0x00f5)
   18F3 F0            [24] 3566 	movx	@dptr,a
   18F4 90 14 F6      [24] 3567 	mov	dptr,#(_a + 0x00f6)
   18F7 F0            [24] 3568 	movx	@dptr,a
   18F8 90 14 F7      [24] 3569 	mov	dptr,#(_a + 0x00f7)
   18FB F0            [24] 3570 	movx	@dptr,a
   18FC 90 14 F8      [24] 3571 	mov	dptr,#(_a + 0x00f8)
   18FF E4            [12] 3572 	clr	a
   1900 F0            [24] 3573 	movx	@dptr,a
   1901 90 14 F9      [24] 3574 	mov	dptr,#(_a + 0x00f9)
   1904 F0            [24] 3575 	movx	@dptr,a
   1905 90 14 FA      [24] 3576 	mov	dptr,#(_a + 0x00fa)
   1908 F0            [24] 3577 	movx	@dptr,a
   1909 90 14 FB      [24] 3578 	mov	dptr,#(_a + 0x00fb)
   190C F0            [24] 3579 	movx	@dptr,a
   190D 90 14 FC      [24] 3580 	mov	dptr,#(_a + 0x00fc)
   1910 E4            [12] 3581 	clr	a
   1911 F0            [24] 3582 	movx	@dptr,a
   1912 90 14 FD      [24] 3583 	mov	dptr,#(_a + 0x00fd)
   1915 F0            [24] 3584 	movx	@dptr,a
   1916 90 14 FE      [24] 3585 	mov	dptr,#(_a + 0x00fe)
   1919 F0            [24] 3586 	movx	@dptr,a
   191A 90 14 FF      [24] 3587 	mov	dptr,#(_a + 0x00ff)
   191D F0            [24] 3588 	movx	@dptr,a
                           3589 ;	rsa_exponent.c:54: volatile __xdata __at (0x0100) unsigned char e[] = {0x01, 0x01, 0x00, 0x00, 0x00, 0x00, 0x00, 0x00, 0x00, 0x00, 0x00, 0x00, 0x00, 0x00, 0x00, 0x00, 0x00, 0x00, 0x00, 0x00, 0x00, 0x00, 0x00, 0x00, 0x00, 0x00, 0x00, 0x00, 0x00, 0x00, 0x00, 0x00, 0x00, 0x00, 0x00, 0x00, 0x00, 0x00, 0x00, 0x00, 0x00, 0x00, 0x00, 0x00, 0x00, 0x00, 0x00, 0x00, 0x00, 0x00, 0x00, 0x00, 0x00, 0x00, 0x00, 0x00, 0x00, 0x00, 0x00, 0x00, 0x00, 0x00, 0x00, 0x00, 0x00, 0x00, 0x00, 0x00, 0x00, 0x00, 0x00, 0x00, 0x00, 0x00, 0x00, 0x00, 0x00, 0x00, 0x00, 0x00, 0x00, 0x00, 0x00, 0x00, 0x00, 0x00, 0x00, 0x00, 0x00, 0x00, 0x00, 0x00, 0x00, 0x00, 0x00, 0x00, 0x00, 0x00, 0x00, 0x00, 0x00, 0x00, 0x00, 0x00, 0x00, 0x00, 0x00, 0x00, 0x00, 0x00, 0x00, 0x00, 0x00, 0x00, 0x00, 0x00, 0x00, 0x00, 0x00, 0x00, 0x00, 0x00, 0x00, 0x00, 0x00, 0x00, 0x00, 0x00, 0x00, 0x00, 0x00, 0x00, 0x00, 0x00, 0x00, 0x00, 0x00, 0x00, 0x00, 0x00, 0x00, 0x00, 0x00, 0x00, 0x00, 0x00, 0x00, 0x00, 0x00, 0x00, 0x00, 0x00, 0x00, 0x00, 0x00, 0x00, 0x00, 0x00, 0x00, 0x00, 0x00, 0x00, 0x00, 0x00, 0x00, 0x00, 0x00, 0x00, 0x00, 0x00, 0x00, 0x00, 0x00, 0x00, 0x00, 0x00, 0x00, 0x00, 0x00, 0x00, 0x00, 0x00, 0x00, 0x00, 0x00, 0x00, 0x00, 0x00, 0x00, 0x00, 0x00, 0x00, 0x00, 0x00, 0x00, 0x00, 0x00, 0x00, 0x00, 0x00, 0x00, 0x00, 0x00, 0x00, 0x00, 0x00, 0x00, 0x00, 0x00, 0x00, 0x00, 0x00, 0x00, 0x00, 0x00, 0x00, 0x00, 0x00, 0x00, 0x00, 0x00, 0x00, 0x00, 0x00, 0x00, 0x00, 0x00, 0x00, 0x00, 0x00, 0x00, 0x00, 0x00, 0x00, 0x00, 0x00, 0x00, 0x00, 0x00, 0x00, 0x00, 0x00, 0x00, 0x00, 0x00, 0x00, 0x00, 0x00, 0x00, 0x00, 0x00, 0x00, 0x00, 0x00, 0x00, 0x00  };
   191E 90 01 00      [24] 3590 	mov	dptr,#_e
   1921 74 01         [12] 3591 	mov	a,#0x01
   1923 F0            [24] 3592 	movx	@dptr,a
   1924 90 01 01      [24] 3593 	mov	dptr,#(_e + 0x0001)
   1927 74 01         [12] 3594 	mov	a,#0x01
   1929 F0            [24] 3595 	movx	@dptr,a
   192A 90 01 02      [24] 3596 	mov	dptr,#(_e + 0x0002)
   192D E4            [12] 3597 	clr	a
   192E F0            [24] 3598 	movx	@dptr,a
   192F 90 01 03      [24] 3599 	mov	dptr,#(_e + 0x0003)
   1932 F0            [24] 3600 	movx	@dptr,a
   1933 90 01 04      [24] 3601 	mov	dptr,#(_e + 0x0004)
   1936 F0            [24] 3602 	movx	@dptr,a
   1937 90 01 05      [24] 3603 	mov	dptr,#(_e + 0x0005)
   193A F0            [24] 3604 	movx	@dptr,a
   193B 90 01 06      [24] 3605 	mov	dptr,#(_e + 0x0006)
   193E E4            [12] 3606 	clr	a
   193F F0            [24] 3607 	movx	@dptr,a
   1940 90 01 07      [24] 3608 	mov	dptr,#(_e + 0x0007)
   1943 F0            [24] 3609 	movx	@dptr,a
   1944 90 01 08      [24] 3610 	mov	dptr,#(_e + 0x0008)
   1947 F0            [24] 3611 	movx	@dptr,a
   1948 90 01 09      [24] 3612 	mov	dptr,#(_e + 0x0009)
   194B F0            [24] 3613 	movx	@dptr,a
   194C 90 01 0A      [24] 3614 	mov	dptr,#(_e + 0x000a)
   194F E4            [12] 3615 	clr	a
   1950 F0            [24] 3616 	movx	@dptr,a
   1951 90 01 0B      [24] 3617 	mov	dptr,#(_e + 0x000b)
   1954 F0            [24] 3618 	movx	@dptr,a
   1955 90 01 0C      [24] 3619 	mov	dptr,#(_e + 0x000c)
   1958 F0            [24] 3620 	movx	@dptr,a
   1959 90 01 0D      [24] 3621 	mov	dptr,#(_e + 0x000d)
   195C F0            [24] 3622 	movx	@dptr,a
   195D 90 01 0E      [24] 3623 	mov	dptr,#(_e + 0x000e)
   1960 E4            [12] 3624 	clr	a
   1961 F0            [24] 3625 	movx	@dptr,a
   1962 90 01 0F      [24] 3626 	mov	dptr,#(_e + 0x000f)
   1965 F0            [24] 3627 	movx	@dptr,a
   1966 90 01 10      [24] 3628 	mov	dptr,#(_e + 0x0010)
   1969 F0            [24] 3629 	movx	@dptr,a
   196A 90 01 11      [24] 3630 	mov	dptr,#(_e + 0x0011)
   196D F0            [24] 3631 	movx	@dptr,a
   196E 90 01 12      [24] 3632 	mov	dptr,#(_e + 0x0012)
   1971 E4            [12] 3633 	clr	a
   1972 F0            [24] 3634 	movx	@dptr,a
   1973 90 01 13      [24] 3635 	mov	dptr,#(_e + 0x0013)
   1976 F0            [24] 3636 	movx	@dptr,a
   1977 90 01 14      [24] 3637 	mov	dptr,#(_e + 0x0014)
   197A F0            [24] 3638 	movx	@dptr,a
   197B 90 01 15      [24] 3639 	mov	dptr,#(_e + 0x0015)
   197E F0            [24] 3640 	movx	@dptr,a
   197F 90 01 16      [24] 3641 	mov	dptr,#(_e + 0x0016)
   1982 E4            [12] 3642 	clr	a
   1983 F0            [24] 3643 	movx	@dptr,a
   1984 90 01 17      [24] 3644 	mov	dptr,#(_e + 0x0017)
   1987 F0            [24] 3645 	movx	@dptr,a
   1988 90 01 18      [24] 3646 	mov	dptr,#(_e + 0x0018)
   198B F0            [24] 3647 	movx	@dptr,a
   198C 90 01 19      [24] 3648 	mov	dptr,#(_e + 0x0019)
   198F F0            [24] 3649 	movx	@dptr,a
   1990 90 01 1A      [24] 3650 	mov	dptr,#(_e + 0x001a)
   1993 E4            [12] 3651 	clr	a
   1994 F0            [24] 3652 	movx	@dptr,a
   1995 90 01 1B      [24] 3653 	mov	dptr,#(_e + 0x001b)
   1998 F0            [24] 3654 	movx	@dptr,a
   1999 90 01 1C      [24] 3655 	mov	dptr,#(_e + 0x001c)
   199C F0            [24] 3656 	movx	@dptr,a
   199D 90 01 1D      [24] 3657 	mov	dptr,#(_e + 0x001d)
   19A0 F0            [24] 3658 	movx	@dptr,a
   19A1 90 01 1E      [24] 3659 	mov	dptr,#(_e + 0x001e)
   19A4 E4            [12] 3660 	clr	a
   19A5 F0            [24] 3661 	movx	@dptr,a
   19A6 90 01 1F      [24] 3662 	mov	dptr,#(_e + 0x001f)
   19A9 F0            [24] 3663 	movx	@dptr,a
   19AA 90 01 20      [24] 3664 	mov	dptr,#(_e + 0x0020)
   19AD F0            [24] 3665 	movx	@dptr,a
   19AE 90 01 21      [24] 3666 	mov	dptr,#(_e + 0x0021)
   19B1 F0            [24] 3667 	movx	@dptr,a
   19B2 90 01 22      [24] 3668 	mov	dptr,#(_e + 0x0022)
   19B5 E4            [12] 3669 	clr	a
   19B6 F0            [24] 3670 	movx	@dptr,a
   19B7 90 01 23      [24] 3671 	mov	dptr,#(_e + 0x0023)
   19BA F0            [24] 3672 	movx	@dptr,a
   19BB 90 01 24      [24] 3673 	mov	dptr,#(_e + 0x0024)
   19BE F0            [24] 3674 	movx	@dptr,a
   19BF 90 01 25      [24] 3675 	mov	dptr,#(_e + 0x0025)
   19C2 F0            [24] 3676 	movx	@dptr,a
   19C3 90 01 26      [24] 3677 	mov	dptr,#(_e + 0x0026)
   19C6 E4            [12] 3678 	clr	a
   19C7 F0            [24] 3679 	movx	@dptr,a
   19C8 90 01 27      [24] 3680 	mov	dptr,#(_e + 0x0027)
   19CB F0            [24] 3681 	movx	@dptr,a
   19CC 90 01 28      [24] 3682 	mov	dptr,#(_e + 0x0028)
   19CF F0            [24] 3683 	movx	@dptr,a
   19D0 90 01 29      [24] 3684 	mov	dptr,#(_e + 0x0029)
   19D3 F0            [24] 3685 	movx	@dptr,a
   19D4 90 01 2A      [24] 3686 	mov	dptr,#(_e + 0x002a)
   19D7 E4            [12] 3687 	clr	a
   19D8 F0            [24] 3688 	movx	@dptr,a
   19D9 90 01 2B      [24] 3689 	mov	dptr,#(_e + 0x002b)
   19DC F0            [24] 3690 	movx	@dptr,a
   19DD 90 01 2C      [24] 3691 	mov	dptr,#(_e + 0x002c)
   19E0 F0            [24] 3692 	movx	@dptr,a
   19E1 90 01 2D      [24] 3693 	mov	dptr,#(_e + 0x002d)
   19E4 F0            [24] 3694 	movx	@dptr,a
   19E5 90 01 2E      [24] 3695 	mov	dptr,#(_e + 0x002e)
   19E8 E4            [12] 3696 	clr	a
   19E9 F0            [24] 3697 	movx	@dptr,a
   19EA 90 01 2F      [24] 3698 	mov	dptr,#(_e + 0x002f)
   19ED F0            [24] 3699 	movx	@dptr,a
   19EE 90 01 30      [24] 3700 	mov	dptr,#(_e + 0x0030)
   19F1 F0            [24] 3701 	movx	@dptr,a
   19F2 90 01 31      [24] 3702 	mov	dptr,#(_e + 0x0031)
   19F5 F0            [24] 3703 	movx	@dptr,a
   19F6 90 01 32      [24] 3704 	mov	dptr,#(_e + 0x0032)
   19F9 E4            [12] 3705 	clr	a
   19FA F0            [24] 3706 	movx	@dptr,a
   19FB 90 01 33      [24] 3707 	mov	dptr,#(_e + 0x0033)
   19FE F0            [24] 3708 	movx	@dptr,a
   19FF 90 01 34      [24] 3709 	mov	dptr,#(_e + 0x0034)
   1A02 F0            [24] 3710 	movx	@dptr,a
   1A03 90 01 35      [24] 3711 	mov	dptr,#(_e + 0x0035)
   1A06 F0            [24] 3712 	movx	@dptr,a
   1A07 90 01 36      [24] 3713 	mov	dptr,#(_e + 0x0036)
   1A0A E4            [12] 3714 	clr	a
   1A0B F0            [24] 3715 	movx	@dptr,a
   1A0C 90 01 37      [24] 3716 	mov	dptr,#(_e + 0x0037)
   1A0F F0            [24] 3717 	movx	@dptr,a
   1A10 90 01 38      [24] 3718 	mov	dptr,#(_e + 0x0038)
   1A13 F0            [24] 3719 	movx	@dptr,a
   1A14 90 01 39      [24] 3720 	mov	dptr,#(_e + 0x0039)
   1A17 F0            [24] 3721 	movx	@dptr,a
   1A18 90 01 3A      [24] 3722 	mov	dptr,#(_e + 0x003a)
   1A1B E4            [12] 3723 	clr	a
   1A1C F0            [24] 3724 	movx	@dptr,a
   1A1D 90 01 3B      [24] 3725 	mov	dptr,#(_e + 0x003b)
   1A20 F0            [24] 3726 	movx	@dptr,a
   1A21 90 01 3C      [24] 3727 	mov	dptr,#(_e + 0x003c)
   1A24 F0            [24] 3728 	movx	@dptr,a
   1A25 90 01 3D      [24] 3729 	mov	dptr,#(_e + 0x003d)
   1A28 F0            [24] 3730 	movx	@dptr,a
   1A29 90 01 3E      [24] 3731 	mov	dptr,#(_e + 0x003e)
   1A2C E4            [12] 3732 	clr	a
   1A2D F0            [24] 3733 	movx	@dptr,a
   1A2E 90 01 3F      [24] 3734 	mov	dptr,#(_e + 0x003f)
   1A31 F0            [24] 3735 	movx	@dptr,a
   1A32 90 01 40      [24] 3736 	mov	dptr,#(_e + 0x0040)
   1A35 F0            [24] 3737 	movx	@dptr,a
   1A36 90 01 41      [24] 3738 	mov	dptr,#(_e + 0x0041)
   1A39 F0            [24] 3739 	movx	@dptr,a
   1A3A 90 01 42      [24] 3740 	mov	dptr,#(_e + 0x0042)
   1A3D E4            [12] 3741 	clr	a
   1A3E F0            [24] 3742 	movx	@dptr,a
   1A3F 90 01 43      [24] 3743 	mov	dptr,#(_e + 0x0043)
   1A42 F0            [24] 3744 	movx	@dptr,a
   1A43 90 01 44      [24] 3745 	mov	dptr,#(_e + 0x0044)
   1A46 F0            [24] 3746 	movx	@dptr,a
   1A47 90 01 45      [24] 3747 	mov	dptr,#(_e + 0x0045)
   1A4A F0            [24] 3748 	movx	@dptr,a
   1A4B 90 01 46      [24] 3749 	mov	dptr,#(_e + 0x0046)
   1A4E E4            [12] 3750 	clr	a
   1A4F F0            [24] 3751 	movx	@dptr,a
   1A50 90 01 47      [24] 3752 	mov	dptr,#(_e + 0x0047)
   1A53 F0            [24] 3753 	movx	@dptr,a
   1A54 90 01 48      [24] 3754 	mov	dptr,#(_e + 0x0048)
   1A57 F0            [24] 3755 	movx	@dptr,a
   1A58 90 01 49      [24] 3756 	mov	dptr,#(_e + 0x0049)
   1A5B F0            [24] 3757 	movx	@dptr,a
   1A5C 90 01 4A      [24] 3758 	mov	dptr,#(_e + 0x004a)
   1A5F E4            [12] 3759 	clr	a
   1A60 F0            [24] 3760 	movx	@dptr,a
   1A61 90 01 4B      [24] 3761 	mov	dptr,#(_e + 0x004b)
   1A64 F0            [24] 3762 	movx	@dptr,a
   1A65 90 01 4C      [24] 3763 	mov	dptr,#(_e + 0x004c)
   1A68 F0            [24] 3764 	movx	@dptr,a
   1A69 90 01 4D      [24] 3765 	mov	dptr,#(_e + 0x004d)
   1A6C F0            [24] 3766 	movx	@dptr,a
   1A6D 90 01 4E      [24] 3767 	mov	dptr,#(_e + 0x004e)
   1A70 E4            [12] 3768 	clr	a
   1A71 F0            [24] 3769 	movx	@dptr,a
   1A72 90 01 4F      [24] 3770 	mov	dptr,#(_e + 0x004f)
   1A75 F0            [24] 3771 	movx	@dptr,a
   1A76 90 01 50      [24] 3772 	mov	dptr,#(_e + 0x0050)
   1A79 F0            [24] 3773 	movx	@dptr,a
   1A7A 90 01 51      [24] 3774 	mov	dptr,#(_e + 0x0051)
   1A7D F0            [24] 3775 	movx	@dptr,a
   1A7E 90 01 52      [24] 3776 	mov	dptr,#(_e + 0x0052)
   1A81 E4            [12] 3777 	clr	a
   1A82 F0            [24] 3778 	movx	@dptr,a
   1A83 90 01 53      [24] 3779 	mov	dptr,#(_e + 0x0053)
   1A86 F0            [24] 3780 	movx	@dptr,a
   1A87 90 01 54      [24] 3781 	mov	dptr,#(_e + 0x0054)
   1A8A F0            [24] 3782 	movx	@dptr,a
   1A8B 90 01 55      [24] 3783 	mov	dptr,#(_e + 0x0055)
   1A8E F0            [24] 3784 	movx	@dptr,a
   1A8F 90 01 56      [24] 3785 	mov	dptr,#(_e + 0x0056)
   1A92 E4            [12] 3786 	clr	a
   1A93 F0            [24] 3787 	movx	@dptr,a
   1A94 90 01 57      [24] 3788 	mov	dptr,#(_e + 0x0057)
   1A97 F0            [24] 3789 	movx	@dptr,a
   1A98 90 01 58      [24] 3790 	mov	dptr,#(_e + 0x0058)
   1A9B F0            [24] 3791 	movx	@dptr,a
   1A9C 90 01 59      [24] 3792 	mov	dptr,#(_e + 0x0059)
   1A9F F0            [24] 3793 	movx	@dptr,a
   1AA0 90 01 5A      [24] 3794 	mov	dptr,#(_e + 0x005a)
   1AA3 E4            [12] 3795 	clr	a
   1AA4 F0            [24] 3796 	movx	@dptr,a
   1AA5 90 01 5B      [24] 3797 	mov	dptr,#(_e + 0x005b)
   1AA8 F0            [24] 3798 	movx	@dptr,a
   1AA9 90 01 5C      [24] 3799 	mov	dptr,#(_e + 0x005c)
   1AAC F0            [24] 3800 	movx	@dptr,a
   1AAD 90 01 5D      [24] 3801 	mov	dptr,#(_e + 0x005d)
   1AB0 F0            [24] 3802 	movx	@dptr,a
   1AB1 90 01 5E      [24] 3803 	mov	dptr,#(_e + 0x005e)
   1AB4 E4            [12] 3804 	clr	a
   1AB5 F0            [24] 3805 	movx	@dptr,a
   1AB6 90 01 5F      [24] 3806 	mov	dptr,#(_e + 0x005f)
   1AB9 F0            [24] 3807 	movx	@dptr,a
   1ABA 90 01 60      [24] 3808 	mov	dptr,#(_e + 0x0060)
   1ABD F0            [24] 3809 	movx	@dptr,a
   1ABE 90 01 61      [24] 3810 	mov	dptr,#(_e + 0x0061)
   1AC1 F0            [24] 3811 	movx	@dptr,a
   1AC2 90 01 62      [24] 3812 	mov	dptr,#(_e + 0x0062)
   1AC5 E4            [12] 3813 	clr	a
   1AC6 F0            [24] 3814 	movx	@dptr,a
   1AC7 90 01 63      [24] 3815 	mov	dptr,#(_e + 0x0063)
   1ACA F0            [24] 3816 	movx	@dptr,a
   1ACB 90 01 64      [24] 3817 	mov	dptr,#(_e + 0x0064)
   1ACE F0            [24] 3818 	movx	@dptr,a
   1ACF 90 01 65      [24] 3819 	mov	dptr,#(_e + 0x0065)
   1AD2 F0            [24] 3820 	movx	@dptr,a
   1AD3 90 01 66      [24] 3821 	mov	dptr,#(_e + 0x0066)
   1AD6 E4            [12] 3822 	clr	a
   1AD7 F0            [24] 3823 	movx	@dptr,a
   1AD8 90 01 67      [24] 3824 	mov	dptr,#(_e + 0x0067)
   1ADB F0            [24] 3825 	movx	@dptr,a
   1ADC 90 01 68      [24] 3826 	mov	dptr,#(_e + 0x0068)
   1ADF F0            [24] 3827 	movx	@dptr,a
   1AE0 90 01 69      [24] 3828 	mov	dptr,#(_e + 0x0069)
   1AE3 F0            [24] 3829 	movx	@dptr,a
   1AE4 90 01 6A      [24] 3830 	mov	dptr,#(_e + 0x006a)
   1AE7 E4            [12] 3831 	clr	a
   1AE8 F0            [24] 3832 	movx	@dptr,a
   1AE9 90 01 6B      [24] 3833 	mov	dptr,#(_e + 0x006b)
   1AEC F0            [24] 3834 	movx	@dptr,a
   1AED 90 01 6C      [24] 3835 	mov	dptr,#(_e + 0x006c)
   1AF0 F0            [24] 3836 	movx	@dptr,a
   1AF1 90 01 6D      [24] 3837 	mov	dptr,#(_e + 0x006d)
   1AF4 F0            [24] 3838 	movx	@dptr,a
   1AF5 90 01 6E      [24] 3839 	mov	dptr,#(_e + 0x006e)
   1AF8 E4            [12] 3840 	clr	a
   1AF9 F0            [24] 3841 	movx	@dptr,a
   1AFA 90 01 6F      [24] 3842 	mov	dptr,#(_e + 0x006f)
   1AFD F0            [24] 3843 	movx	@dptr,a
   1AFE 90 01 70      [24] 3844 	mov	dptr,#(_e + 0x0070)
   1B01 F0            [24] 3845 	movx	@dptr,a
   1B02 90 01 71      [24] 3846 	mov	dptr,#(_e + 0x0071)
   1B05 F0            [24] 3847 	movx	@dptr,a
   1B06 90 01 72      [24] 3848 	mov	dptr,#(_e + 0x0072)
   1B09 E4            [12] 3849 	clr	a
   1B0A F0            [24] 3850 	movx	@dptr,a
   1B0B 90 01 73      [24] 3851 	mov	dptr,#(_e + 0x0073)
   1B0E F0            [24] 3852 	movx	@dptr,a
   1B0F 90 01 74      [24] 3853 	mov	dptr,#(_e + 0x0074)
   1B12 F0            [24] 3854 	movx	@dptr,a
   1B13 90 01 75      [24] 3855 	mov	dptr,#(_e + 0x0075)
   1B16 F0            [24] 3856 	movx	@dptr,a
   1B17 90 01 76      [24] 3857 	mov	dptr,#(_e + 0x0076)
   1B1A E4            [12] 3858 	clr	a
   1B1B F0            [24] 3859 	movx	@dptr,a
   1B1C 90 01 77      [24] 3860 	mov	dptr,#(_e + 0x0077)
   1B1F F0            [24] 3861 	movx	@dptr,a
   1B20 90 01 78      [24] 3862 	mov	dptr,#(_e + 0x0078)
   1B23 F0            [24] 3863 	movx	@dptr,a
   1B24 90 01 79      [24] 3864 	mov	dptr,#(_e + 0x0079)
   1B27 F0            [24] 3865 	movx	@dptr,a
   1B28 90 01 7A      [24] 3866 	mov	dptr,#(_e + 0x007a)
   1B2B E4            [12] 3867 	clr	a
   1B2C F0            [24] 3868 	movx	@dptr,a
   1B2D 90 01 7B      [24] 3869 	mov	dptr,#(_e + 0x007b)
   1B30 F0            [24] 3870 	movx	@dptr,a
   1B31 90 01 7C      [24] 3871 	mov	dptr,#(_e + 0x007c)
   1B34 F0            [24] 3872 	movx	@dptr,a
   1B35 90 01 7D      [24] 3873 	mov	dptr,#(_e + 0x007d)
   1B38 F0            [24] 3874 	movx	@dptr,a
   1B39 90 01 7E      [24] 3875 	mov	dptr,#(_e + 0x007e)
   1B3C E4            [12] 3876 	clr	a
   1B3D F0            [24] 3877 	movx	@dptr,a
   1B3E 90 01 7F      [24] 3878 	mov	dptr,#(_e + 0x007f)
   1B41 F0            [24] 3879 	movx	@dptr,a
   1B42 90 01 80      [24] 3880 	mov	dptr,#(_e + 0x0080)
   1B45 F0            [24] 3881 	movx	@dptr,a
   1B46 90 01 81      [24] 3882 	mov	dptr,#(_e + 0x0081)
   1B49 F0            [24] 3883 	movx	@dptr,a
   1B4A 90 01 82      [24] 3884 	mov	dptr,#(_e + 0x0082)
   1B4D E4            [12] 3885 	clr	a
   1B4E F0            [24] 3886 	movx	@dptr,a
   1B4F 90 01 83      [24] 3887 	mov	dptr,#(_e + 0x0083)
   1B52 F0            [24] 3888 	movx	@dptr,a
   1B53 90 01 84      [24] 3889 	mov	dptr,#(_e + 0x0084)
   1B56 F0            [24] 3890 	movx	@dptr,a
   1B57 90 01 85      [24] 3891 	mov	dptr,#(_e + 0x0085)
   1B5A F0            [24] 3892 	movx	@dptr,a
   1B5B 90 01 86      [24] 3893 	mov	dptr,#(_e + 0x0086)
   1B5E E4            [12] 3894 	clr	a
   1B5F F0            [24] 3895 	movx	@dptr,a
   1B60 90 01 87      [24] 3896 	mov	dptr,#(_e + 0x0087)
   1B63 F0            [24] 3897 	movx	@dptr,a
   1B64 90 01 88      [24] 3898 	mov	dptr,#(_e + 0x0088)
   1B67 F0            [24] 3899 	movx	@dptr,a
   1B68 90 01 89      [24] 3900 	mov	dptr,#(_e + 0x0089)
   1B6B F0            [24] 3901 	movx	@dptr,a
   1B6C 90 01 8A      [24] 3902 	mov	dptr,#(_e + 0x008a)
   1B6F E4            [12] 3903 	clr	a
   1B70 F0            [24] 3904 	movx	@dptr,a
   1B71 90 01 8B      [24] 3905 	mov	dptr,#(_e + 0x008b)
   1B74 F0            [24] 3906 	movx	@dptr,a
   1B75 90 01 8C      [24] 3907 	mov	dptr,#(_e + 0x008c)
   1B78 F0            [24] 3908 	movx	@dptr,a
   1B79 90 01 8D      [24] 3909 	mov	dptr,#(_e + 0x008d)
   1B7C F0            [24] 3910 	movx	@dptr,a
   1B7D 90 01 8E      [24] 3911 	mov	dptr,#(_e + 0x008e)
   1B80 E4            [12] 3912 	clr	a
   1B81 F0            [24] 3913 	movx	@dptr,a
   1B82 90 01 8F      [24] 3914 	mov	dptr,#(_e + 0x008f)
   1B85 F0            [24] 3915 	movx	@dptr,a
   1B86 90 01 90      [24] 3916 	mov	dptr,#(_e + 0x0090)
   1B89 F0            [24] 3917 	movx	@dptr,a
   1B8A 90 01 91      [24] 3918 	mov	dptr,#(_e + 0x0091)
   1B8D F0            [24] 3919 	movx	@dptr,a
   1B8E 90 01 92      [24] 3920 	mov	dptr,#(_e + 0x0092)
   1B91 E4            [12] 3921 	clr	a
   1B92 F0            [24] 3922 	movx	@dptr,a
   1B93 90 01 93      [24] 3923 	mov	dptr,#(_e + 0x0093)
   1B96 F0            [24] 3924 	movx	@dptr,a
   1B97 90 01 94      [24] 3925 	mov	dptr,#(_e + 0x0094)
   1B9A F0            [24] 3926 	movx	@dptr,a
   1B9B 90 01 95      [24] 3927 	mov	dptr,#(_e + 0x0095)
   1B9E F0            [24] 3928 	movx	@dptr,a
   1B9F 90 01 96      [24] 3929 	mov	dptr,#(_e + 0x0096)
   1BA2 E4            [12] 3930 	clr	a
   1BA3 F0            [24] 3931 	movx	@dptr,a
   1BA4 90 01 97      [24] 3932 	mov	dptr,#(_e + 0x0097)
   1BA7 F0            [24] 3933 	movx	@dptr,a
   1BA8 90 01 98      [24] 3934 	mov	dptr,#(_e + 0x0098)
   1BAB F0            [24] 3935 	movx	@dptr,a
   1BAC 90 01 99      [24] 3936 	mov	dptr,#(_e + 0x0099)
   1BAF F0            [24] 3937 	movx	@dptr,a
   1BB0 90 01 9A      [24] 3938 	mov	dptr,#(_e + 0x009a)
   1BB3 E4            [12] 3939 	clr	a
   1BB4 F0            [24] 3940 	movx	@dptr,a
   1BB5 90 01 9B      [24] 3941 	mov	dptr,#(_e + 0x009b)
   1BB8 F0            [24] 3942 	movx	@dptr,a
   1BB9 90 01 9C      [24] 3943 	mov	dptr,#(_e + 0x009c)
   1BBC F0            [24] 3944 	movx	@dptr,a
   1BBD 90 01 9D      [24] 3945 	mov	dptr,#(_e + 0x009d)
   1BC0 F0            [24] 3946 	movx	@dptr,a
   1BC1 90 01 9E      [24] 3947 	mov	dptr,#(_e + 0x009e)
   1BC4 E4            [12] 3948 	clr	a
   1BC5 F0            [24] 3949 	movx	@dptr,a
   1BC6 90 01 9F      [24] 3950 	mov	dptr,#(_e + 0x009f)
   1BC9 F0            [24] 3951 	movx	@dptr,a
   1BCA 90 01 A0      [24] 3952 	mov	dptr,#(_e + 0x00a0)
   1BCD F0            [24] 3953 	movx	@dptr,a
   1BCE 90 01 A1      [24] 3954 	mov	dptr,#(_e + 0x00a1)
   1BD1 F0            [24] 3955 	movx	@dptr,a
   1BD2 90 01 A2      [24] 3956 	mov	dptr,#(_e + 0x00a2)
   1BD5 E4            [12] 3957 	clr	a
   1BD6 F0            [24] 3958 	movx	@dptr,a
   1BD7 90 01 A3      [24] 3959 	mov	dptr,#(_e + 0x00a3)
   1BDA F0            [24] 3960 	movx	@dptr,a
   1BDB 90 01 A4      [24] 3961 	mov	dptr,#(_e + 0x00a4)
   1BDE F0            [24] 3962 	movx	@dptr,a
   1BDF 90 01 A5      [24] 3963 	mov	dptr,#(_e + 0x00a5)
   1BE2 F0            [24] 3964 	movx	@dptr,a
   1BE3 90 01 A6      [24] 3965 	mov	dptr,#(_e + 0x00a6)
   1BE6 E4            [12] 3966 	clr	a
   1BE7 F0            [24] 3967 	movx	@dptr,a
   1BE8 90 01 A7      [24] 3968 	mov	dptr,#(_e + 0x00a7)
   1BEB F0            [24] 3969 	movx	@dptr,a
   1BEC 90 01 A8      [24] 3970 	mov	dptr,#(_e + 0x00a8)
   1BEF F0            [24] 3971 	movx	@dptr,a
   1BF0 90 01 A9      [24] 3972 	mov	dptr,#(_e + 0x00a9)
   1BF3 F0            [24] 3973 	movx	@dptr,a
   1BF4 90 01 AA      [24] 3974 	mov	dptr,#(_e + 0x00aa)
   1BF7 E4            [12] 3975 	clr	a
   1BF8 F0            [24] 3976 	movx	@dptr,a
   1BF9 90 01 AB      [24] 3977 	mov	dptr,#(_e + 0x00ab)
   1BFC F0            [24] 3978 	movx	@dptr,a
   1BFD 90 01 AC      [24] 3979 	mov	dptr,#(_e + 0x00ac)
   1C00 F0            [24] 3980 	movx	@dptr,a
   1C01 90 01 AD      [24] 3981 	mov	dptr,#(_e + 0x00ad)
   1C04 F0            [24] 3982 	movx	@dptr,a
   1C05 90 01 AE      [24] 3983 	mov	dptr,#(_e + 0x00ae)
   1C08 E4            [12] 3984 	clr	a
   1C09 F0            [24] 3985 	movx	@dptr,a
   1C0A 90 01 AF      [24] 3986 	mov	dptr,#(_e + 0x00af)
   1C0D F0            [24] 3987 	movx	@dptr,a
   1C0E 90 01 B0      [24] 3988 	mov	dptr,#(_e + 0x00b0)
   1C11 F0            [24] 3989 	movx	@dptr,a
   1C12 90 01 B1      [24] 3990 	mov	dptr,#(_e + 0x00b1)
   1C15 F0            [24] 3991 	movx	@dptr,a
   1C16 90 01 B2      [24] 3992 	mov	dptr,#(_e + 0x00b2)
   1C19 E4            [12] 3993 	clr	a
   1C1A F0            [24] 3994 	movx	@dptr,a
   1C1B 90 01 B3      [24] 3995 	mov	dptr,#(_e + 0x00b3)
   1C1E F0            [24] 3996 	movx	@dptr,a
   1C1F 90 01 B4      [24] 3997 	mov	dptr,#(_e + 0x00b4)
   1C22 F0            [24] 3998 	movx	@dptr,a
   1C23 90 01 B5      [24] 3999 	mov	dptr,#(_e + 0x00b5)
   1C26 F0            [24] 4000 	movx	@dptr,a
   1C27 90 01 B6      [24] 4001 	mov	dptr,#(_e + 0x00b6)
   1C2A E4            [12] 4002 	clr	a
   1C2B F0            [24] 4003 	movx	@dptr,a
   1C2C 90 01 B7      [24] 4004 	mov	dptr,#(_e + 0x00b7)
   1C2F F0            [24] 4005 	movx	@dptr,a
   1C30 90 01 B8      [24] 4006 	mov	dptr,#(_e + 0x00b8)
   1C33 F0            [24] 4007 	movx	@dptr,a
   1C34 90 01 B9      [24] 4008 	mov	dptr,#(_e + 0x00b9)
   1C37 F0            [24] 4009 	movx	@dptr,a
   1C38 90 01 BA      [24] 4010 	mov	dptr,#(_e + 0x00ba)
   1C3B E4            [12] 4011 	clr	a
   1C3C F0            [24] 4012 	movx	@dptr,a
   1C3D 90 01 BB      [24] 4013 	mov	dptr,#(_e + 0x00bb)
   1C40 F0            [24] 4014 	movx	@dptr,a
   1C41 90 01 BC      [24] 4015 	mov	dptr,#(_e + 0x00bc)
   1C44 F0            [24] 4016 	movx	@dptr,a
   1C45 90 01 BD      [24] 4017 	mov	dptr,#(_e + 0x00bd)
   1C48 F0            [24] 4018 	movx	@dptr,a
   1C49 90 01 BE      [24] 4019 	mov	dptr,#(_e + 0x00be)
   1C4C E4            [12] 4020 	clr	a
   1C4D F0            [24] 4021 	movx	@dptr,a
   1C4E 90 01 BF      [24] 4022 	mov	dptr,#(_e + 0x00bf)
   1C51 F0            [24] 4023 	movx	@dptr,a
   1C52 90 01 C0      [24] 4024 	mov	dptr,#(_e + 0x00c0)
   1C55 F0            [24] 4025 	movx	@dptr,a
   1C56 90 01 C1      [24] 4026 	mov	dptr,#(_e + 0x00c1)
   1C59 F0            [24] 4027 	movx	@dptr,a
   1C5A 90 01 C2      [24] 4028 	mov	dptr,#(_e + 0x00c2)
   1C5D E4            [12] 4029 	clr	a
   1C5E F0            [24] 4030 	movx	@dptr,a
   1C5F 90 01 C3      [24] 4031 	mov	dptr,#(_e + 0x00c3)
   1C62 F0            [24] 4032 	movx	@dptr,a
   1C63 90 01 C4      [24] 4033 	mov	dptr,#(_e + 0x00c4)
   1C66 F0            [24] 4034 	movx	@dptr,a
   1C67 90 01 C5      [24] 4035 	mov	dptr,#(_e + 0x00c5)
   1C6A F0            [24] 4036 	movx	@dptr,a
   1C6B 90 01 C6      [24] 4037 	mov	dptr,#(_e + 0x00c6)
   1C6E E4            [12] 4038 	clr	a
   1C6F F0            [24] 4039 	movx	@dptr,a
   1C70 90 01 C7      [24] 4040 	mov	dptr,#(_e + 0x00c7)
   1C73 F0            [24] 4041 	movx	@dptr,a
   1C74 90 01 C8      [24] 4042 	mov	dptr,#(_e + 0x00c8)
   1C77 F0            [24] 4043 	movx	@dptr,a
   1C78 90 01 C9      [24] 4044 	mov	dptr,#(_e + 0x00c9)
   1C7B F0            [24] 4045 	movx	@dptr,a
   1C7C 90 01 CA      [24] 4046 	mov	dptr,#(_e + 0x00ca)
   1C7F E4            [12] 4047 	clr	a
   1C80 F0            [24] 4048 	movx	@dptr,a
   1C81 90 01 CB      [24] 4049 	mov	dptr,#(_e + 0x00cb)
   1C84 F0            [24] 4050 	movx	@dptr,a
   1C85 90 01 CC      [24] 4051 	mov	dptr,#(_e + 0x00cc)
   1C88 F0            [24] 4052 	movx	@dptr,a
   1C89 90 01 CD      [24] 4053 	mov	dptr,#(_e + 0x00cd)
   1C8C F0            [24] 4054 	movx	@dptr,a
   1C8D 90 01 CE      [24] 4055 	mov	dptr,#(_e + 0x00ce)
   1C90 E4            [12] 4056 	clr	a
   1C91 F0            [24] 4057 	movx	@dptr,a
   1C92 90 01 CF      [24] 4058 	mov	dptr,#(_e + 0x00cf)
   1C95 F0            [24] 4059 	movx	@dptr,a
   1C96 90 01 D0      [24] 4060 	mov	dptr,#(_e + 0x00d0)
   1C99 F0            [24] 4061 	movx	@dptr,a
   1C9A 90 01 D1      [24] 4062 	mov	dptr,#(_e + 0x00d1)
   1C9D F0            [24] 4063 	movx	@dptr,a
   1C9E 90 01 D2      [24] 4064 	mov	dptr,#(_e + 0x00d2)
   1CA1 E4            [12] 4065 	clr	a
   1CA2 F0            [24] 4066 	movx	@dptr,a
   1CA3 90 01 D3      [24] 4067 	mov	dptr,#(_e + 0x00d3)
   1CA6 F0            [24] 4068 	movx	@dptr,a
   1CA7 90 01 D4      [24] 4069 	mov	dptr,#(_e + 0x00d4)
   1CAA F0            [24] 4070 	movx	@dptr,a
   1CAB 90 01 D5      [24] 4071 	mov	dptr,#(_e + 0x00d5)
   1CAE F0            [24] 4072 	movx	@dptr,a
   1CAF 90 01 D6      [24] 4073 	mov	dptr,#(_e + 0x00d6)
   1CB2 E4            [12] 4074 	clr	a
   1CB3 F0            [24] 4075 	movx	@dptr,a
   1CB4 90 01 D7      [24] 4076 	mov	dptr,#(_e + 0x00d7)
   1CB7 F0            [24] 4077 	movx	@dptr,a
   1CB8 90 01 D8      [24] 4078 	mov	dptr,#(_e + 0x00d8)
   1CBB F0            [24] 4079 	movx	@dptr,a
   1CBC 90 01 D9      [24] 4080 	mov	dptr,#(_e + 0x00d9)
   1CBF F0            [24] 4081 	movx	@dptr,a
   1CC0 90 01 DA      [24] 4082 	mov	dptr,#(_e + 0x00da)
   1CC3 E4            [12] 4083 	clr	a
   1CC4 F0            [24] 4084 	movx	@dptr,a
   1CC5 90 01 DB      [24] 4085 	mov	dptr,#(_e + 0x00db)
   1CC8 F0            [24] 4086 	movx	@dptr,a
   1CC9 90 01 DC      [24] 4087 	mov	dptr,#(_e + 0x00dc)
   1CCC F0            [24] 4088 	movx	@dptr,a
   1CCD 90 01 DD      [24] 4089 	mov	dptr,#(_e + 0x00dd)
   1CD0 F0            [24] 4090 	movx	@dptr,a
   1CD1 90 01 DE      [24] 4091 	mov	dptr,#(_e + 0x00de)
   1CD4 E4            [12] 4092 	clr	a
   1CD5 F0            [24] 4093 	movx	@dptr,a
   1CD6 90 01 DF      [24] 4094 	mov	dptr,#(_e + 0x00df)
   1CD9 F0            [24] 4095 	movx	@dptr,a
   1CDA 90 01 E0      [24] 4096 	mov	dptr,#(_e + 0x00e0)
   1CDD F0            [24] 4097 	movx	@dptr,a
   1CDE 90 01 E1      [24] 4098 	mov	dptr,#(_e + 0x00e1)
   1CE1 F0            [24] 4099 	movx	@dptr,a
   1CE2 90 01 E2      [24] 4100 	mov	dptr,#(_e + 0x00e2)
   1CE5 E4            [12] 4101 	clr	a
   1CE6 F0            [24] 4102 	movx	@dptr,a
   1CE7 90 01 E3      [24] 4103 	mov	dptr,#(_e + 0x00e3)
   1CEA F0            [24] 4104 	movx	@dptr,a
   1CEB 90 01 E4      [24] 4105 	mov	dptr,#(_e + 0x00e4)
   1CEE F0            [24] 4106 	movx	@dptr,a
   1CEF 90 01 E5      [24] 4107 	mov	dptr,#(_e + 0x00e5)
   1CF2 F0            [24] 4108 	movx	@dptr,a
   1CF3 90 01 E6      [24] 4109 	mov	dptr,#(_e + 0x00e6)
   1CF6 E4            [12] 4110 	clr	a
   1CF7 F0            [24] 4111 	movx	@dptr,a
   1CF8 90 01 E7      [24] 4112 	mov	dptr,#(_e + 0x00e7)
   1CFB F0            [24] 4113 	movx	@dptr,a
   1CFC 90 01 E8      [24] 4114 	mov	dptr,#(_e + 0x00e8)
   1CFF F0            [24] 4115 	movx	@dptr,a
   1D00 90 01 E9      [24] 4116 	mov	dptr,#(_e + 0x00e9)
   1D03 F0            [24] 4117 	movx	@dptr,a
   1D04 90 01 EA      [24] 4118 	mov	dptr,#(_e + 0x00ea)
   1D07 E4            [12] 4119 	clr	a
   1D08 F0            [24] 4120 	movx	@dptr,a
   1D09 90 01 EB      [24] 4121 	mov	dptr,#(_e + 0x00eb)
   1D0C F0            [24] 4122 	movx	@dptr,a
   1D0D 90 01 EC      [24] 4123 	mov	dptr,#(_e + 0x00ec)
   1D10 F0            [24] 4124 	movx	@dptr,a
   1D11 90 01 ED      [24] 4125 	mov	dptr,#(_e + 0x00ed)
   1D14 F0            [24] 4126 	movx	@dptr,a
   1D15 90 01 EE      [24] 4127 	mov	dptr,#(_e + 0x00ee)
   1D18 E4            [12] 4128 	clr	a
   1D19 F0            [24] 4129 	movx	@dptr,a
   1D1A 90 01 EF      [24] 4130 	mov	dptr,#(_e + 0x00ef)
   1D1D F0            [24] 4131 	movx	@dptr,a
   1D1E 90 01 F0      [24] 4132 	mov	dptr,#(_e + 0x00f0)
   1D21 F0            [24] 4133 	movx	@dptr,a
   1D22 90 01 F1      [24] 4134 	mov	dptr,#(_e + 0x00f1)
   1D25 F0            [24] 4135 	movx	@dptr,a
   1D26 90 01 F2      [24] 4136 	mov	dptr,#(_e + 0x00f2)
   1D29 E4            [12] 4137 	clr	a
   1D2A F0            [24] 4138 	movx	@dptr,a
   1D2B 90 01 F3      [24] 4139 	mov	dptr,#(_e + 0x00f3)
   1D2E F0            [24] 4140 	movx	@dptr,a
   1D2F 90 01 F4      [24] 4141 	mov	dptr,#(_e + 0x00f4)
   1D32 F0            [24] 4142 	movx	@dptr,a
   1D33 90 01 F5      [24] 4143 	mov	dptr,#(_e + 0x00f5)
   1D36 F0            [24] 4144 	movx	@dptr,a
   1D37 90 01 F6      [24] 4145 	mov	dptr,#(_e + 0x00f6)
   1D3A E4            [12] 4146 	clr	a
   1D3B F0            [24] 4147 	movx	@dptr,a
   1D3C 90 01 F7      [24] 4148 	mov	dptr,#(_e + 0x00f7)
   1D3F F0            [24] 4149 	movx	@dptr,a
   1D40 90 01 F8      [24] 4150 	mov	dptr,#(_e + 0x00f8)
   1D43 F0            [24] 4151 	movx	@dptr,a
   1D44 90 01 F9      [24] 4152 	mov	dptr,#(_e + 0x00f9)
   1D47 F0            [24] 4153 	movx	@dptr,a
   1D48 90 01 FA      [24] 4154 	mov	dptr,#(_e + 0x00fa)
   1D4B E4            [12] 4155 	clr	a
   1D4C F0            [24] 4156 	movx	@dptr,a
   1D4D 90 01 FB      [24] 4157 	mov	dptr,#(_e + 0x00fb)
   1D50 F0            [24] 4158 	movx	@dptr,a
   1D51 90 01 FC      [24] 4159 	mov	dptr,#(_e + 0x00fc)
   1D54 F0            [24] 4160 	movx	@dptr,a
   1D55 90 01 FD      [24] 4161 	mov	dptr,#(_e + 0x00fd)
   1D58 F0            [24] 4162 	movx	@dptr,a
   1D59 90 01 FE      [24] 4163 	mov	dptr,#(_e + 0x00fe)
   1D5C E4            [12] 4164 	clr	a
   1D5D F0            [24] 4165 	movx	@dptr,a
   1D5E 90 01 FF      [24] 4166 	mov	dptr,#(_e + 0x00ff)
   1D61 F0            [24] 4167 	movx	@dptr,a
                           4168 ;	rsa_exponent.c:56: volatile __xdata __at (0x0200) unsigned char d[] = {0x01, 0x0F, 0xEC, 0x4A, 0xDD, 0x26, 0x57, 0x7D, 0x77, 0x31, 0x93, 0xE1, 0xCF, 0x05, 0xC5, 0x06, 0xE4, 0x0F, 0x04, 0xF9,
   1D62 90 02 00      [24] 4169 	mov	dptr,#_d
   1D65 74 01         [12] 4170 	mov	a,#0x01
   1D67 F0            [24] 4171 	movx	@dptr,a
   1D68 90 02 01      [24] 4172 	mov	dptr,#(_d + 0x0001)
   1D6B 74 0F         [12] 4173 	mov	a,#0x0F
   1D6D F0            [24] 4174 	movx	@dptr,a
   1D6E 90 02 02      [24] 4175 	mov	dptr,#(_d + 0x0002)
   1D71 74 EC         [12] 4176 	mov	a,#0xEC
   1D73 F0            [24] 4177 	movx	@dptr,a
   1D74 90 02 03      [24] 4178 	mov	dptr,#(_d + 0x0003)
   1D77 74 4A         [12] 4179 	mov	a,#0x4A
   1D79 F0            [24] 4180 	movx	@dptr,a
   1D7A 90 02 04      [24] 4181 	mov	dptr,#(_d + 0x0004)
   1D7D 74 DD         [12] 4182 	mov	a,#0xDD
   1D7F F0            [24] 4183 	movx	@dptr,a
   1D80 90 02 05      [24] 4184 	mov	dptr,#(_d + 0x0005)
   1D83 74 26         [12] 4185 	mov	a,#0x26
   1D85 F0            [24] 4186 	movx	@dptr,a
   1D86 90 02 06      [24] 4187 	mov	dptr,#(_d + 0x0006)
   1D89 74 57         [12] 4188 	mov	a,#0x57
   1D8B F0            [24] 4189 	movx	@dptr,a
   1D8C 90 02 07      [24] 4190 	mov	dptr,#(_d + 0x0007)
   1D8F 74 7D         [12] 4191 	mov	a,#0x7D
   1D91 F0            [24] 4192 	movx	@dptr,a
   1D92 90 02 08      [24] 4193 	mov	dptr,#(_d + 0x0008)
   1D95 74 77         [12] 4194 	mov	a,#0x77
   1D97 F0            [24] 4195 	movx	@dptr,a
   1D98 90 02 09      [24] 4196 	mov	dptr,#(_d + 0x0009)
   1D9B 74 31         [12] 4197 	mov	a,#0x31
   1D9D F0            [24] 4198 	movx	@dptr,a
   1D9E 90 02 0A      [24] 4199 	mov	dptr,#(_d + 0x000a)
   1DA1 74 93         [12] 4200 	mov	a,#0x93
   1DA3 F0            [24] 4201 	movx	@dptr,a
   1DA4 90 02 0B      [24] 4202 	mov	dptr,#(_d + 0x000b)
   1DA7 74 E1         [12] 4203 	mov	a,#0xE1
   1DA9 F0            [24] 4204 	movx	@dptr,a
   1DAA 90 02 0C      [24] 4205 	mov	dptr,#(_d + 0x000c)
   1DAD 74 CF         [12] 4206 	mov	a,#0xCF
   1DAF F0            [24] 4207 	movx	@dptr,a
   1DB0 90 02 0D      [24] 4208 	mov	dptr,#(_d + 0x000d)
   1DB3 74 05         [12] 4209 	mov	a,#0x05
   1DB5 F0            [24] 4210 	movx	@dptr,a
   1DB6 90 02 0E      [24] 4211 	mov	dptr,#(_d + 0x000e)
   1DB9 74 C5         [12] 4212 	mov	a,#0xC5
   1DBB F0            [24] 4213 	movx	@dptr,a
   1DBC 90 02 0F      [24] 4214 	mov	dptr,#(_d + 0x000f)
   1DBF 74 06         [12] 4215 	mov	a,#0x06
   1DC1 F0            [24] 4216 	movx	@dptr,a
   1DC2 90 02 10      [24] 4217 	mov	dptr,#(_d + 0x0010)
   1DC5 74 E4         [12] 4218 	mov	a,#0xE4
   1DC7 F0            [24] 4219 	movx	@dptr,a
   1DC8 90 02 11      [24] 4220 	mov	dptr,#(_d + 0x0011)
   1DCB 74 0F         [12] 4221 	mov	a,#0x0F
   1DCD F0            [24] 4222 	movx	@dptr,a
   1DCE 90 02 12      [24] 4223 	mov	dptr,#(_d + 0x0012)
   1DD1 74 04         [12] 4224 	mov	a,#0x04
   1DD3 F0            [24] 4225 	movx	@dptr,a
   1DD4 90 02 13      [24] 4226 	mov	dptr,#(_d + 0x0013)
   1DD7 74 F9         [12] 4227 	mov	a,#0xF9
   1DD9 F0            [24] 4228 	movx	@dptr,a
   1DDA 90 02 14      [24] 4229 	mov	dptr,#(_d + 0x0014)
   1DDD 74 08         [12] 4230 	mov	a,#0x08
   1DDF F0            [24] 4231 	movx	@dptr,a
   1DE0 90 02 15      [24] 4232 	mov	dptr,#(_d + 0x0015)
   1DE3 74 57         [12] 4233 	mov	a,#0x57
   1DE5 F0            [24] 4234 	movx	@dptr,a
   1DE6 90 02 16      [24] 4235 	mov	dptr,#(_d + 0x0016)
   1DE9 74 0C         [12] 4236 	mov	a,#0x0C
   1DEB F0            [24] 4237 	movx	@dptr,a
   1DEC 90 02 17      [24] 4238 	mov	dptr,#(_d + 0x0017)
   1DEF 74 73         [12] 4239 	mov	a,#0x73
   1DF1 F0            [24] 4240 	movx	@dptr,a
   1DF2 90 02 18      [24] 4241 	mov	dptr,#(_d + 0x0018)
   1DF5 74 21         [12] 4242 	mov	a,#0x21
   1DF7 F0            [24] 4243 	movx	@dptr,a
   1DF8 90 02 19      [24] 4244 	mov	dptr,#(_d + 0x0019)
   1DFB 74 A9         [12] 4245 	mov	a,#0xA9
   1DFD F0            [24] 4246 	movx	@dptr,a
   1DFE 90 02 1A      [24] 4247 	mov	dptr,#(_d + 0x001a)
   1E01 74 73         [12] 4248 	mov	a,#0x73
   1E03 F0            [24] 4249 	movx	@dptr,a
   1E04 90 02 1B      [24] 4250 	mov	dptr,#(_d + 0x001b)
   1E07 74 FB         [12] 4251 	mov	a,#0xFB
   1E09 F0            [24] 4252 	movx	@dptr,a
   1E0A 90 02 1C      [24] 4253 	mov	dptr,#(_d + 0x001c)
   1E0D 74 A8         [12] 4254 	mov	a,#0xA8
   1E0F F0            [24] 4255 	movx	@dptr,a
   1E10 90 02 1D      [24] 4256 	mov	dptr,#(_d + 0x001d)
   1E13 74 3F         [12] 4257 	mov	a,#0x3F
   1E15 F0            [24] 4258 	movx	@dptr,a
   1E16 90 02 1E      [24] 4259 	mov	dptr,#(_d + 0x001e)
   1E19 74 53         [12] 4260 	mov	a,#0x53
   1E1B F0            [24] 4261 	movx	@dptr,a
   1E1C 90 02 1F      [24] 4262 	mov	dptr,#(_d + 0x001f)
   1E1F 74 43         [12] 4263 	mov	a,#0x43
   1E21 F0            [24] 4264 	movx	@dptr,a
   1E22 90 02 20      [24] 4265 	mov	dptr,#(_d + 0x0020)
   1E25 74 1F         [12] 4266 	mov	a,#0x1F
   1E27 F0            [24] 4267 	movx	@dptr,a
   1E28 90 02 21      [24] 4268 	mov	dptr,#(_d + 0x0021)
   1E2B 74 7F         [12] 4269 	mov	a,#0x7F
   1E2D F0            [24] 4270 	movx	@dptr,a
   1E2E 90 02 22      [24] 4271 	mov	dptr,#(_d + 0x0022)
   1E31 74 4C         [12] 4272 	mov	a,#0x4C
   1E33 F0            [24] 4273 	movx	@dptr,a
   1E34 90 02 23      [24] 4274 	mov	dptr,#(_d + 0x0023)
   1E37 74 C7         [12] 4275 	mov	a,#0xC7
   1E39 F0            [24] 4276 	movx	@dptr,a
   1E3A 90 02 24      [24] 4277 	mov	dptr,#(_d + 0x0024)
   1E3D 74 D8         [12] 4278 	mov	a,#0xD8
   1E3F F0            [24] 4279 	movx	@dptr,a
   1E40 90 02 25      [24] 4280 	mov	dptr,#(_d + 0x0025)
   1E43 74 B2         [12] 4281 	mov	a,#0xB2
   1E45 F0            [24] 4282 	movx	@dptr,a
   1E46 90 02 26      [24] 4283 	mov	dptr,#(_d + 0x0026)
   1E49 74 FE         [12] 4284 	mov	a,#0xFE
   1E4B F0            [24] 4285 	movx	@dptr,a
   1E4C 90 02 27      [24] 4286 	mov	dptr,#(_d + 0x0027)
   1E4F 74 6E         [12] 4287 	mov	a,#0x6E
   1E51 F0            [24] 4288 	movx	@dptr,a
   1E52 90 02 28      [24] 4289 	mov	dptr,#(_d + 0x0028)
   1E55 74 C1         [12] 4290 	mov	a,#0xC1
   1E57 F0            [24] 4291 	movx	@dptr,a
   1E58 90 02 29      [24] 4292 	mov	dptr,#(_d + 0x0029)
   1E5B 74 72         [12] 4293 	mov	a,#0x72
   1E5D F0            [24] 4294 	movx	@dptr,a
   1E5E 90 02 2A      [24] 4295 	mov	dptr,#(_d + 0x002a)
   1E61 74 40         [12] 4296 	mov	a,#0x40
   1E63 F0            [24] 4297 	movx	@dptr,a
   1E64 90 02 2B      [24] 4298 	mov	dptr,#(_d + 0x002b)
   1E67 74 F5         [12] 4299 	mov	a,#0xF5
   1E69 F0            [24] 4300 	movx	@dptr,a
   1E6A 90 02 2C      [24] 4301 	mov	dptr,#(_d + 0x002c)
   1E6D 74 6C         [12] 4302 	mov	a,#0x6C
   1E6F F0            [24] 4303 	movx	@dptr,a
   1E70 90 02 2D      [24] 4304 	mov	dptr,#(_d + 0x002d)
   1E73 74 A8         [12] 4305 	mov	a,#0xA8
   1E75 F0            [24] 4306 	movx	@dptr,a
   1E76 90 02 2E      [24] 4307 	mov	dptr,#(_d + 0x002e)
   1E79 74 68         [12] 4308 	mov	a,#0x68
   1E7B F0            [24] 4309 	movx	@dptr,a
   1E7C 90 02 2F      [24] 4310 	mov	dptr,#(_d + 0x002f)
   1E7F 74 13         [12] 4311 	mov	a,#0x13
   1E81 F0            [24] 4312 	movx	@dptr,a
   1E82 90 02 30      [24] 4313 	mov	dptr,#(_d + 0x0030)
   1E85 74 87         [12] 4314 	mov	a,#0x87
   1E87 F0            [24] 4315 	movx	@dptr,a
   1E88 90 02 31      [24] 4316 	mov	dptr,#(_d + 0x0031)
   1E8B 74 8B         [12] 4317 	mov	a,#0x8B
   1E8D F0            [24] 4318 	movx	@dptr,a
   1E8E 90 02 32      [24] 4319 	mov	dptr,#(_d + 0x0032)
   1E91 74 36         [12] 4320 	mov	a,#0x36
   1E93 F0            [24] 4321 	movx	@dptr,a
   1E94 90 02 33      [24] 4322 	mov	dptr,#(_d + 0x0033)
   1E97 74 21         [12] 4323 	mov	a,#0x21
   1E99 F0            [24] 4324 	movx	@dptr,a
   1E9A 90 02 34      [24] 4325 	mov	dptr,#(_d + 0x0034)
   1E9D 74 74         [12] 4326 	mov	a,#0x74
   1E9F F0            [24] 4327 	movx	@dptr,a
   1EA0 90 02 35      [24] 4328 	mov	dptr,#(_d + 0x0035)
   1EA3 74 59         [12] 4329 	mov	a,#0x59
   1EA5 F0            [24] 4330 	movx	@dptr,a
   1EA6 90 02 36      [24] 4331 	mov	dptr,#(_d + 0x0036)
   1EA9 74 44         [12] 4332 	mov	a,#0x44
   1EAB F0            [24] 4333 	movx	@dptr,a
   1EAC 90 02 37      [24] 4334 	mov	dptr,#(_d + 0x0037)
   1EAF 74 66         [12] 4335 	mov	a,#0x66
   1EB1 F0            [24] 4336 	movx	@dptr,a
   1EB2 90 02 38      [24] 4337 	mov	dptr,#(_d + 0x0038)
   1EB5 74 BF         [12] 4338 	mov	a,#0xBF
   1EB7 F0            [24] 4339 	movx	@dptr,a
   1EB8 90 02 39      [24] 4340 	mov	dptr,#(_d + 0x0039)
   1EBB 74 C7         [12] 4341 	mov	a,#0xC7
   1EBD F0            [24] 4342 	movx	@dptr,a
   1EBE 90 02 3A      [24] 4343 	mov	dptr,#(_d + 0x003a)
   1EC1 74 49         [12] 4344 	mov	a,#0x49
   1EC3 F0            [24] 4345 	movx	@dptr,a
   1EC4 90 02 3B      [24] 4346 	mov	dptr,#(_d + 0x003b)
   1EC7 74 24         [12] 4347 	mov	a,#0x24
   1EC9 F0            [24] 4348 	movx	@dptr,a
   1ECA 90 02 3C      [24] 4349 	mov	dptr,#(_d + 0x003c)
   1ECD 74 96         [12] 4350 	mov	a,#0x96
   1ECF F0            [24] 4351 	movx	@dptr,a
   1ED0 90 02 3D      [24] 4352 	mov	dptr,#(_d + 0x003d)
   1ED3 74 C4         [12] 4353 	mov	a,#0xC4
   1ED5 F0            [24] 4354 	movx	@dptr,a
   1ED6 90 02 3E      [24] 4355 	mov	dptr,#(_d + 0x003e)
   1ED9 74 FA         [12] 4356 	mov	a,#0xFA
   1EDB F0            [24] 4357 	movx	@dptr,a
   1EDC 90 02 3F      [24] 4358 	mov	dptr,#(_d + 0x003f)
   1EDF 74 0C         [12] 4359 	mov	a,#0x0C
   1EE1 F0            [24] 4360 	movx	@dptr,a
   1EE2 90 02 40      [24] 4361 	mov	dptr,#(_d + 0x0040)
   1EE5 74 8A         [12] 4362 	mov	a,#0x8A
   1EE7 F0            [24] 4363 	movx	@dptr,a
   1EE8 90 02 41      [24] 4364 	mov	dptr,#(_d + 0x0041)
   1EEB 74 F3         [12] 4365 	mov	a,#0xF3
   1EED F0            [24] 4366 	movx	@dptr,a
   1EEE 90 02 42      [24] 4367 	mov	dptr,#(_d + 0x0042)
   1EF1 74 84         [12] 4368 	mov	a,#0x84
   1EF3 F0            [24] 4369 	movx	@dptr,a
   1EF4 90 02 43      [24] 4370 	mov	dptr,#(_d + 0x0043)
   1EF7 74 CE         [12] 4371 	mov	a,#0xCE
   1EF9 F0            [24] 4372 	movx	@dptr,a
   1EFA 90 02 44      [24] 4373 	mov	dptr,#(_d + 0x0044)
   1EFD 74 DC         [12] 4374 	mov	a,#0xDC
   1EFF F0            [24] 4375 	movx	@dptr,a
   1F00 90 02 45      [24] 4376 	mov	dptr,#(_d + 0x0045)
   1F03 74 D0         [12] 4377 	mov	a,#0xD0
   1F05 F0            [24] 4378 	movx	@dptr,a
   1F06 90 02 46      [24] 4379 	mov	dptr,#(_d + 0x0046)
   1F09 74 5C         [12] 4380 	mov	a,#0x5C
   1F0B F0            [24] 4381 	movx	@dptr,a
   1F0C 90 02 47      [24] 4382 	mov	dptr,#(_d + 0x0047)
   1F0F 74 61         [12] 4383 	mov	a,#0x61
   1F11 F0            [24] 4384 	movx	@dptr,a
   1F12 90 02 48      [24] 4385 	mov	dptr,#(_d + 0x0048)
   1F15 74 9B         [12] 4386 	mov	a,#0x9B
   1F17 F0            [24] 4387 	movx	@dptr,a
   1F18 90 02 49      [24] 4388 	mov	dptr,#(_d + 0x0049)
   1F1B 74 2E         [12] 4389 	mov	a,#0x2E
   1F1D F0            [24] 4390 	movx	@dptr,a
   1F1E 90 02 4A      [24] 4391 	mov	dptr,#(_d + 0x004a)
   1F21 74 9C         [12] 4392 	mov	a,#0x9C
   1F23 F0            [24] 4393 	movx	@dptr,a
   1F24 90 02 4B      [24] 4394 	mov	dptr,#(_d + 0x004b)
   1F27 74 51         [12] 4395 	mov	a,#0x51
   1F29 F0            [24] 4396 	movx	@dptr,a
   1F2A 90 02 4C      [24] 4397 	mov	dptr,#(_d + 0x004c)
   1F2D 74 E9         [12] 4398 	mov	a,#0xE9
   1F2F F0            [24] 4399 	movx	@dptr,a
   1F30 90 02 4D      [24] 4400 	mov	dptr,#(_d + 0x004d)
   1F33 74 5D         [12] 4401 	mov	a,#0x5D
   1F35 F0            [24] 4402 	movx	@dptr,a
   1F36 90 02 4E      [24] 4403 	mov	dptr,#(_d + 0x004e)
   1F39 74 FA         [12] 4404 	mov	a,#0xFA
   1F3B F0            [24] 4405 	movx	@dptr,a
   1F3C 90 02 4F      [24] 4406 	mov	dptr,#(_d + 0x004f)
   1F3F 74 84         [12] 4407 	mov	a,#0x84
   1F41 F0            [24] 4408 	movx	@dptr,a
   1F42 90 02 50      [24] 4409 	mov	dptr,#(_d + 0x0050)
   1F45 74 65         [12] 4410 	mov	a,#0x65
   1F47 F0            [24] 4411 	movx	@dptr,a
   1F48 90 02 51      [24] 4412 	mov	dptr,#(_d + 0x0051)
   1F4B 74 77         [12] 4413 	mov	a,#0x77
   1F4D F0            [24] 4414 	movx	@dptr,a
   1F4E 90 02 52      [24] 4415 	mov	dptr,#(_d + 0x0052)
   1F51 74 4D         [12] 4416 	mov	a,#0x4D
   1F53 F0            [24] 4417 	movx	@dptr,a
   1F54 90 02 53      [24] 4418 	mov	dptr,#(_d + 0x0053)
   1F57 74 F1         [12] 4419 	mov	a,#0xF1
   1F59 F0            [24] 4420 	movx	@dptr,a
   1F5A 90 02 54      [24] 4421 	mov	dptr,#(_d + 0x0054)
   1F5D 74 90         [12] 4422 	mov	a,#0x90
   1F5F F0            [24] 4423 	movx	@dptr,a
   1F60 90 02 55      [24] 4424 	mov	dptr,#(_d + 0x0055)
   1F63 74 02         [12] 4425 	mov	a,#0x02
   1F65 F0            [24] 4426 	movx	@dptr,a
   1F66 90 02 56      [24] 4427 	mov	dptr,#(_d + 0x0056)
   1F69 74 21         [12] 4428 	mov	a,#0x21
   1F6B F0            [24] 4429 	movx	@dptr,a
   1F6C 90 02 57      [24] 4430 	mov	dptr,#(_d + 0x0057)
   1F6F 74 01         [12] 4431 	mov	a,#0x01
   1F71 F0            [24] 4432 	movx	@dptr,a
   1F72 90 02 58      [24] 4433 	mov	dptr,#(_d + 0x0058)
   1F75 74 11         [12] 4434 	mov	a,#0x11
   1F77 F0            [24] 4435 	movx	@dptr,a
   1F78 90 02 59      [24] 4436 	mov	dptr,#(_d + 0x0059)
   1F7B 74 8A         [12] 4437 	mov	a,#0x8A
   1F7D F0            [24] 4438 	movx	@dptr,a
   1F7E 90 02 5A      [24] 4439 	mov	dptr,#(_d + 0x005a)
   1F81 74 FE         [12] 4440 	mov	a,#0xFE
   1F83 F0            [24] 4441 	movx	@dptr,a
   1F84 90 02 5B      [24] 4442 	mov	dptr,#(_d + 0x005b)
   1F87 74 55         [12] 4443 	mov	a,#0x55
   1F89 F0            [24] 4444 	movx	@dptr,a
   1F8A 90 02 5C      [24] 4445 	mov	dptr,#(_d + 0x005c)
   1F8D 74 6A         [12] 4446 	mov	a,#0x6A
   1F8F F0            [24] 4447 	movx	@dptr,a
   1F90 90 02 5D      [24] 4448 	mov	dptr,#(_d + 0x005d)
   1F93 74 D3         [12] 4449 	mov	a,#0xD3
   1F95 F0            [24] 4450 	movx	@dptr,a
   1F96 90 02 5E      [24] 4451 	mov	dptr,#(_d + 0x005e)
   1F99 74 8E         [12] 4452 	mov	a,#0x8E
   1F9B F0            [24] 4453 	movx	@dptr,a
   1F9C 90 02 5F      [24] 4454 	mov	dptr,#(_d + 0x005f)
   1F9F 74 B8         [12] 4455 	mov	a,#0xB8
   1FA1 F0            [24] 4456 	movx	@dptr,a
   1FA2 90 02 60      [24] 4457 	mov	dptr,#(_d + 0x0060)
   1FA5 74 57         [12] 4458 	mov	a,#0x57
   1FA7 F0            [24] 4459 	movx	@dptr,a
   1FA8 90 02 61      [24] 4460 	mov	dptr,#(_d + 0x0061)
   1FAB 74 76         [12] 4461 	mov	a,#0x76
   1FAD F0            [24] 4462 	movx	@dptr,a
   1FAE 90 02 62      [24] 4463 	mov	dptr,#(_d + 0x0062)
   1FB1 74 ED         [12] 4464 	mov	a,#0xED
   1FB3 F0            [24] 4465 	movx	@dptr,a
   1FB4 90 02 63      [24] 4466 	mov	dptr,#(_d + 0x0063)
   1FB7 74 B0         [12] 4467 	mov	a,#0xB0
   1FB9 F0            [24] 4468 	movx	@dptr,a
   1FBA 90 02 64      [24] 4469 	mov	dptr,#(_d + 0x0064)
   1FBD 74 A2         [12] 4470 	mov	a,#0xA2
   1FBF F0            [24] 4471 	movx	@dptr,a
   1FC0 90 02 65      [24] 4472 	mov	dptr,#(_d + 0x0065)
   1FC3 74 72         [12] 4473 	mov	a,#0x72
   1FC5 F0            [24] 4474 	movx	@dptr,a
   1FC6 90 02 66      [24] 4475 	mov	dptr,#(_d + 0x0066)
   1FC9 74 EB         [12] 4476 	mov	a,#0xEB
   1FCB F0            [24] 4477 	movx	@dptr,a
   1FCC 90 02 67      [24] 4478 	mov	dptr,#(_d + 0x0067)
   1FCF 74 BE         [12] 4479 	mov	a,#0xBE
   1FD1 F0            [24] 4480 	movx	@dptr,a
   1FD2 90 02 68      [24] 4481 	mov	dptr,#(_d + 0x0068)
   1FD5 74 31         [12] 4482 	mov	a,#0x31
   1FD7 F0            [24] 4483 	movx	@dptr,a
   1FD8 90 02 69      [24] 4484 	mov	dptr,#(_d + 0x0069)
   1FDB 74 6C         [12] 4485 	mov	a,#0x6C
   1FDD F0            [24] 4486 	movx	@dptr,a
   1FDE 90 02 6A      [24] 4487 	mov	dptr,#(_d + 0x006a)
   1FE1 74 0D         [12] 4488 	mov	a,#0x0D
   1FE3 F0            [24] 4489 	movx	@dptr,a
   1FE4 90 02 6B      [24] 4490 	mov	dptr,#(_d + 0x006b)
   1FE7 74 59         [12] 4491 	mov	a,#0x59
   1FE9 F0            [24] 4492 	movx	@dptr,a
   1FEA 90 02 6C      [24] 4493 	mov	dptr,#(_d + 0x006c)
   1FED 74 9E         [12] 4494 	mov	a,#0x9E
   1FEF F0            [24] 4495 	movx	@dptr,a
   1FF0 90 02 6D      [24] 4496 	mov	dptr,#(_d + 0x006d)
   1FF3 74 63         [12] 4497 	mov	a,#0x63
   1FF5 F0            [24] 4498 	movx	@dptr,a
   1FF6 90 02 6E      [24] 4499 	mov	dptr,#(_d + 0x006e)
   1FF9 74 06         [12] 4500 	mov	a,#0x06
   1FFB F0            [24] 4501 	movx	@dptr,a
   1FFC 90 02 6F      [24] 4502 	mov	dptr,#(_d + 0x006f)
   1FFF 74 B1         [12] 4503 	mov	a,#0xB1
   2001 F0            [24] 4504 	movx	@dptr,a
   2002 90 02 70      [24] 4505 	mov	dptr,#(_d + 0x0070)
   2005 74 18         [12] 4506 	mov	a,#0x18
   2007 F0            [24] 4507 	movx	@dptr,a
   2008 90 02 71      [24] 4508 	mov	dptr,#(_d + 0x0071)
   200B 74 AE         [12] 4509 	mov	a,#0xAE
   200D F0            [24] 4510 	movx	@dptr,a
   200E 90 02 72      [24] 4511 	mov	dptr,#(_d + 0x0072)
   2011 74 F5         [12] 4512 	mov	a,#0xF5
   2013 F0            [24] 4513 	movx	@dptr,a
   2014 90 02 73      [24] 4514 	mov	dptr,#(_d + 0x0073)
   2017 74 65         [12] 4515 	mov	a,#0x65
   2019 F0            [24] 4516 	movx	@dptr,a
   201A 90 02 74      [24] 4517 	mov	dptr,#(_d + 0x0074)
   201D 74 83         [12] 4518 	mov	a,#0x83
   201F F0            [24] 4519 	movx	@dptr,a
   2020 90 02 75      [24] 4520 	mov	dptr,#(_d + 0x0075)
   2023 74 DE         [12] 4521 	mov	a,#0xDE
   2025 F0            [24] 4522 	movx	@dptr,a
   2026 90 02 76      [24] 4523 	mov	dptr,#(_d + 0x0076)
   2029 74 2A         [12] 4524 	mov	a,#0x2A
   202B F0            [24] 4525 	movx	@dptr,a
   202C 90 02 77      [24] 4526 	mov	dptr,#(_d + 0x0077)
   202F 74 D2         [12] 4527 	mov	a,#0xD2
   2031 F0            [24] 4528 	movx	@dptr,a
   2032 90 02 78      [24] 4529 	mov	dptr,#(_d + 0x0078)
   2035 74 98         [12] 4530 	mov	a,#0x98
   2037 F0            [24] 4531 	movx	@dptr,a
   2038 90 02 79      [24] 4532 	mov	dptr,#(_d + 0x0079)
   203B 74 B9         [12] 4533 	mov	a,#0xB9
   203D F0            [24] 4534 	movx	@dptr,a
   203E 90 02 7A      [24] 4535 	mov	dptr,#(_d + 0x007a)
   2041 74 D8         [12] 4536 	mov	a,#0xD8
   2043 F0            [24] 4537 	movx	@dptr,a
   2044 90 02 7B      [24] 4538 	mov	dptr,#(_d + 0x007b)
   2047 74 F6         [12] 4539 	mov	a,#0xF6
   2049 F0            [24] 4540 	movx	@dptr,a
   204A 90 02 7C      [24] 4541 	mov	dptr,#(_d + 0x007c)
   204D 74 BD         [12] 4542 	mov	a,#0xBD
   204F F0            [24] 4543 	movx	@dptr,a
   2050 90 02 7D      [24] 4544 	mov	dptr,#(_d + 0x007d)
   2053 74 25         [12] 4545 	mov	a,#0x25
   2055 F0            [24] 4546 	movx	@dptr,a
   2056 90 02 7E      [24] 4547 	mov	dptr,#(_d + 0x007e)
   2059 74 6E         [12] 4548 	mov	a,#0x6E
   205B F0            [24] 4549 	movx	@dptr,a
   205C 90 02 7F      [24] 4550 	mov	dptr,#(_d + 0x007f)
   205F 74 0B         [12] 4551 	mov	a,#0x0B
   2061 F0            [24] 4552 	movx	@dptr,a
                           4553 	.area GSFINAL (CODE)
   2062 02 00 03      [24] 4554 	ljmp	__sdcc_program_startup
                           4555 ;--------------------------------------------------------
                           4556 ; Home
                           4557 ;--------------------------------------------------------
                           4558 	.area HOME    (CODE)
                           4559 	.area HOME    (CODE)
   0003                    4560 __sdcc_program_startup:
   0003 02 20 65      [24] 4561 	ljmp	_main
                           4562 ;	return from main will return to caller
                           4563 ;--------------------------------------------------------
                           4564 ; code
                           4565 ;--------------------------------------------------------
                           4566 	.area CSEG    (CODE)
                           4567 ;------------------------------------------------------------
                           4568 ;Allocation info for local variables in function 'main'
                           4569 ;------------------------------------------------------------
                           4570 ;i                         Allocated to registers r6 r7 
                           4571 ;j                         Allocated to registers r6 r7 
                           4572 ;------------------------------------------------------------
                           4573 ;	rsa_exponent.c:121: void main() {
                           4574 ;	-----------------------------------------
                           4575 ;	 function main
                           4576 ;	-----------------------------------------
   2065                    4577 _main:
                     0007  4578 	ar7 = 0x07
                     0006  4579 	ar6 = 0x06
                     0005  4580 	ar5 = 0x05
                     0004  4581 	ar4 = 0x04
                     0003  4582 	ar3 = 0x03
                     0002  4583 	ar2 = 0x02
                     0001  4584 	ar1 = 0x01
                     0000  4585 	ar0 = 0x00
                           4586 ;	rsa_exponent.c:124: read_mem(0);
   2065 75 80 01      [24] 4587 	mov	_P0,#0x01
   2068                    4588 00101$:
   2068 E5 B0         [12] 4589 	mov	a,_P3
   206A 60 FC         [24] 4590 	jz	00101$
   206C 75 80 00      [24] 4591 	mov	_P0,#0x00
                           4592 ;	rsa_exponent.c:125: mul_x_r2modm(0); 
   206F 75 80 05      [24] 4593 	mov	_P0,#0x05
   2072                    4594 00103$:
   2072 E5 B0         [12] 4595 	mov	a,_P3
   2074 60 FC         [24] 4596 	jz	00103$
   2076 75 80 00      [24] 4597 	mov	_P0,#0x00
                           4598 ;	rsa_exponent.c:126: for (i=9-1; i>=0; i--){
   2079 7E 08         [12] 4599 	mov	r6,#0x08
   207B 7F 00         [12] 4600 	mov	r7,#0x00
   207D                    4601 00137$:
                           4602 ;	rsa_exponent.c:127: mul_a_a(0);
   207D 75 80 55      [24] 4603 	mov	_P0,#0x55
   2080                    4604 00105$:
   2080 E5 B0         [12] 4605 	mov	a,_P3
   2082 60 FC         [24] 4606 	jz	00105$
   2084 75 80 00      [24] 4607 	mov	_P0,#0x00
                           4608 ;	rsa_exponent.c:128: if ((e[i/8] >> (i%8))&0x1){mul_a_x(0);}
   2087 75 08 08      [24] 4609 	mov	__divsint_PARM_2,#0x08
   208A 75 09 00      [24] 4610 	mov	(__divsint_PARM_2 + 1),#0x00
   208D 8E 82         [24] 4611 	mov	dpl,r6
   208F 8F 83         [24] 4612 	mov	dph,r7
   2091 C0 07         [24] 4613 	push	ar7
   2093 C0 06         [24] 4614 	push	ar6
   2095 12 22 53      [24] 4615 	lcall	__divsint
   2098 AC 82         [24] 4616 	mov	r4,dpl
   209A AD 83         [24] 4617 	mov	r5,dph
   209C D0 06         [24] 4618 	pop	ar6
   209E D0 07         [24] 4619 	pop	ar7
   20A0 8C 82         [24] 4620 	mov	dpl,r4
   20A2 74 01         [12] 4621 	mov	a,#(_e >> 8)
   20A4 2D            [12] 4622 	add	a,r5
   20A5 F5 83         [12] 4623 	mov	dph,a
   20A7 E0            [24] 4624 	movx	a,@dptr
   20A8 FD            [12] 4625 	mov	r5,a
   20A9 75 08 08      [24] 4626 	mov	__modsint_PARM_2,#0x08
   20AC 75 09 00      [24] 4627 	mov	(__modsint_PARM_2 + 1),#0x00
   20AF 8E 82         [24] 4628 	mov	dpl,r6
   20B1 8F 83         [24] 4629 	mov	dph,r7
   20B3 C0 07         [24] 4630 	push	ar7
   20B5 C0 06         [24] 4631 	push	ar6
   20B7 C0 05         [24] 4632 	push	ar5
   20B9 12 22 1D      [24] 4633 	lcall	__modsint
   20BC AB 82         [24] 4634 	mov	r3,dpl
   20BE AC 83         [24] 4635 	mov	r4,dph
   20C0 D0 05         [24] 4636 	pop	ar5
   20C2 D0 06         [24] 4637 	pop	ar6
   20C4 D0 07         [24] 4638 	pop	ar7
   20C6 8B F0         [24] 4639 	mov	b,r3
   20C8 05 F0         [12] 4640 	inc	b
   20CA ED            [12] 4641 	mov	a,r5
   20CB 80 02         [24] 4642 	sjmp	00269$
   20CD                    4643 00268$:
   20CD C3            [12] 4644 	clr	c
   20CE 13            [12] 4645 	rrc	a
   20CF                    4646 00269$:
   20CF D5 F0 FB      [24] 4647 	djnz	b,00268$
   20D2 30 E0 0A      [24] 4648 	jnb	acc.0,00138$
   20D5 75 80 65      [24] 4649 	mov	_P0,#0x65
   20D8                    4650 00107$:
   20D8 E5 B0         [12] 4651 	mov	a,_P3
   20DA 60 FC         [24] 4652 	jz	00107$
   20DC 75 80 00      [24] 4653 	mov	_P0,#0x00
   20DF                    4654 00138$:
                           4655 ;	rsa_exponent.c:126: for (i=9-1; i>=0; i--){
   20DF 1E            [12] 4656 	dec	r6
   20E0 BE FF 01      [24] 4657 	cjne	r6,#0xFF,00272$
   20E3 1F            [12] 4658 	dec	r7
   20E4                    4659 00272$:
   20E4 EF            [12] 4660 	mov	a,r7
   20E5 30 E7 95      [24] 4661 	jnb	acc.7,00137$
                           4662 ;	rsa_exponent.c:130: mul_a_1(0);
   20E8 75 80 75      [24] 4663 	mov	_P0,#0x75
   20EB                    4664 00112$:
   20EB E5 B0         [12] 4665 	mov	a,_P3
   20ED 60 FC         [24] 4666 	jz	00112$
   20EF 75 80 00      [24] 4667 	mov	_P0,#0x00
                           4668 ;	rsa_exponent.c:131: write_mem(0);
   20F2 75 80 09      [24] 4669 	mov	_P0,#0x09
   20F5                    4670 00114$:
   20F5 E5 B0         [12] 4671 	mov	a,_P3
   20F7 60 FC         [24] 4672 	jz	00114$
   20F9 75 80 00      [24] 4673 	mov	_P0,#0x00
                           4674 ;	rsa_exponent.c:132: display_res(0);
   20FC 75 80 0D      [24] 4675 	mov	_P0,#0x0D
   20FF                    4676 00116$:
   20FF E5 B0         [12] 4677 	mov	a,_P3
   2101 60 FC         [24] 4678 	jz	00116$
   2103 75 80 00      [24] 4679 	mov	_P0,#0x00
                           4680 ;	rsa_exponent.c:134: for(i=0;i<256;++i)
   2106 7E 00         [12] 4681 	mov	r6,#0x00
   2108 7F 00         [12] 4682 	mov	r7,#0x00
   210A                    4683 00139$:
                           4684 ;	rsa_exponent.c:136: x[i] = a[i];
   210A 8E 04         [24] 4685 	mov	ar4,r6
   210C 74 12         [12] 4686 	mov	a,#(_x >> 8)
   210E 2F            [12] 4687 	add	a,r7
   210F FD            [12] 4688 	mov	r5,a
   2110 8E 82         [24] 4689 	mov	dpl,r6
   2112 74 14         [12] 4690 	mov	a,#(_a >> 8)
   2114 2F            [12] 4691 	add	a,r7
   2115 F5 83         [12] 4692 	mov	dph,a
   2117 E0            [24] 4693 	movx	a,@dptr
   2118 FB            [12] 4694 	mov	r3,a
   2119 8C 82         [24] 4695 	mov	dpl,r4
   211B 8D 83         [24] 4696 	mov	dph,r5
   211D F0            [24] 4697 	movx	@dptr,a
                           4698 ;	rsa_exponent.c:134: for(i=0;i<256;++i)
   211E 0E            [12] 4699 	inc	r6
   211F BE 00 01      [24] 4700 	cjne	r6,#0x00,00277$
   2122 0F            [12] 4701 	inc	r7
   2123                    4702 00277$:
   2123 C3            [12] 4703 	clr	c
   2124 EF            [12] 4704 	mov	a,r7
   2125 64 80         [12] 4705 	xrl	a,#0x80
   2127 94 81         [12] 4706 	subb	a,#0x81
   2129 40 DF         [24] 4707 	jc	00139$
                           4708 ;	rsa_exponent.c:140: read_mem(0);
   212B 75 80 01      [24] 4709 	mov	_P0,#0x01
   212E                    4710 00119$:
   212E E5 B0         [12] 4711 	mov	a,_P3
   2130 60 FC         [24] 4712 	jz	00119$
   2132 75 80 00      [24] 4713 	mov	_P0,#0x00
                           4714 ;	rsa_exponent.c:141: mul_x_r2modm(0); 
   2135 75 80 05      [24] 4715 	mov	_P0,#0x05
   2138                    4716 00121$:
   2138 E5 B0         [12] 4717 	mov	a,_P3
   213A 60 FC         [24] 4718 	jz	00121$
   213C 75 80 00      [24] 4719 	mov	_P0,#0x00
                           4720 ;	rsa_exponent.c:142: for (j=127; j>=0; j--){
   213F 7E 7F         [12] 4721 	mov	r6,#0x7F
   2141 7F 00         [12] 4722 	mov	r7,#0x00
                           4723 ;	rsa_exponent.c:143: for(i=7;i>=0;i--)
   2143                    4724 00175$:
   2143 7C 07         [12] 4725 	mov	r4,#0x07
   2145 7D 00         [12] 4726 	mov	r5,#0x00
   2147                    4727 00141$:
                           4728 ;	rsa_exponent.c:145: mul_a_a(0);
   2147 75 80 55      [24] 4729 	mov	_P0,#0x55
   214A                    4730 00123$:
   214A E5 B0         [12] 4731 	mov	a,_P3
   214C 60 FC         [24] 4732 	jz	00123$
   214E 75 80 00      [24] 4733 	mov	_P0,#0x00
                           4734 ;	rsa_exponent.c:147: if ((d[j] >> (i))&0x1){mul_a_x(0);}
   2151 8E 82         [24] 4735 	mov	dpl,r6
   2153 74 02         [12] 4736 	mov	a,#(_d >> 8)
   2155 2F            [12] 4737 	add	a,r7
   2156 F5 83         [12] 4738 	mov	dph,a
   2158 E0            [24] 4739 	movx	a,@dptr
   2159 FB            [12] 4740 	mov	r3,a
   215A 8C F0         [24] 4741 	mov	b,r4
   215C 05 F0         [12] 4742 	inc	b
   215E EB            [12] 4743 	mov	a,r3
   215F 80 02         [24] 4744 	sjmp	00283$
   2161                    4745 00282$:
   2161 C3            [12] 4746 	clr	c
   2162 13            [12] 4747 	rrc	a
   2163                    4748 00283$:
   2163 D5 F0 FB      [24] 4749 	djnz	b,00282$
   2166 30 E0 0A      [24] 4750 	jnb	acc.0,00142$
   2169 75 80 65      [24] 4751 	mov	_P0,#0x65
   216C                    4752 00125$:
   216C E5 B0         [12] 4753 	mov	a,_P3
   216E 60 FC         [24] 4754 	jz	00125$
   2170 75 80 00      [24] 4755 	mov	_P0,#0x00
   2173                    4756 00142$:
                           4757 ;	rsa_exponent.c:143: for(i=7;i>=0;i--)
   2173 1C            [12] 4758 	dec	r4
   2174 BC FF 01      [24] 4759 	cjne	r4,#0xFF,00286$
   2177 1D            [12] 4760 	dec	r5
   2178                    4761 00286$:
   2178 ED            [12] 4762 	mov	a,r5
   2179 30 E7 CB      [24] 4763 	jnb	acc.7,00141$
                           4764 ;	rsa_exponent.c:142: for (j=127; j>=0; j--){
   217C 1E            [12] 4765 	dec	r6
   217D BE FF 01      [24] 4766 	cjne	r6,#0xFF,00288$
   2180 1F            [12] 4767 	dec	r7
   2181                    4768 00288$:
   2181 EF            [12] 4769 	mov	a,r7
   2182 30 E7 BE      [24] 4770 	jnb	acc.7,00175$
                           4771 ;	rsa_exponent.c:150: mul_a_1(0);
   2185 75 80 75      [24] 4772 	mov	_P0,#0x75
   2188                    4773 00131$:
   2188 E5 B0         [12] 4774 	mov	a,_P3
   218A 60 FC         [24] 4775 	jz	00131$
   218C 75 80 00      [24] 4776 	mov	_P0,#0x00
                           4777 ;	rsa_exponent.c:151: write_mem(0);
   218F 75 80 09      [24] 4778 	mov	_P0,#0x09
   2192                    4779 00133$:
   2192 E5 B0         [12] 4780 	mov	a,_P3
   2194 60 FC         [24] 4781 	jz	00133$
   2196 75 80 00      [24] 4782 	mov	_P0,#0x00
                           4783 ;	rsa_exponent.c:152: display_res(0);
   2199 75 80 0D      [24] 4784 	mov	_P0,#0x0D
   219C                    4785 00135$:
   219C E5 B0         [12] 4786 	mov	a,_P3
   219E 60 FC         [24] 4787 	jz	00135$
   21A0 75 80 00      [24] 4788 	mov	_P0,#0x00
                           4789 ;	rsa_exponent.c:154: terminate();
   21A3 75 B0 55      [24] 4790 	mov	_P3,#0x55
   21A6 22            [24] 4791 	ret
                           4792 	.area CSEG    (CODE)
                           4793 	.area CONST   (CODE)
                           4794 	.area XINIT   (CODE)
                           4795 	.area CABS    (ABS,CODE)
